Archive member included to satisfy reference by file (symbol)

c:/nxp/mcuxpressoide_11.2.1_4149/ide/plugins/com.nxp.mcuxpresso.tools.win32_11.2.0.202008311134/tools/bin/../lib/gcc/arm-none-eabi/9.2.1/../../../../arm-none-eabi/lib/thumb/v7e-m+fp/hard\libcr_semihost_nf.a(_cr__main.o)
                              ./startup/startup_mk22f51212.o (__main)
c:/nxp/mcuxpressoide_11.2.1_4149/ide/plugins/com.nxp.mcuxpresso.tools.win32_11.2.0.202008311134/tools/bin/../lib/gcc/arm-none-eabi/9.2.1/../../../../arm-none-eabi/lib/thumb/v7e-m+fp/hard\libcr_c.a(memcpy.o)
                              ./usb/device/source/khci/usb_device_khci.o (memcpy)
c:/nxp/mcuxpressoide_11.2.1_4149/ide/plugins/com.nxp.mcuxpresso.tools.win32_11.2.0.202008311134/tools/bin/../lib/gcc/arm-none-eabi/9.2.1/../../../../arm-none-eabi/lib/thumb/v7e-m+fp/hard\libcr_c.a(memset.o)
                              ./freertos/freertos_kernel/stream_buffer.o (memset)
c:/nxp/mcuxpressoide_11.2.1_4149/ide/plugins/com.nxp.mcuxpresso.tools.win32_11.2.0.202008311134/tools/bin/../lib/gcc/arm-none-eabi/9.2.1/../../../../arm-none-eabi/lib/thumb/v7e-m+fp/hard\libcr_c.a(alloc.o)
                              ./drivers/fsl_common.o (malloc)
c:/nxp/mcuxpressoide_11.2.1_4149/ide/plugins/com.nxp.mcuxpresso.tools.win32_11.2.0.202008311134/tools/bin/../lib/gcc/arm-none-eabi/9.2.1/../../../../arm-none-eabi/lib/thumb/v7e-m+fp/hard\libcr_c.a(initio.o)
                              c:/nxp/mcuxpressoide_11.2.1_4149/ide/plugins/com.nxp.mcuxpresso.tools.win32_11.2.0.202008311134/tools/bin/../lib/gcc/arm-none-eabi/9.2.1/../../../../arm-none-eabi/lib/thumb/v7e-m+fp/hard\libcr_semihost_nf.a(_cr__main.o) (_initio)
c:/nxp/mcuxpressoide_11.2.1_4149/ide/plugins/com.nxp.mcuxpresso.tools.win32_11.2.0.202008311134/tools/bin/../lib/gcc/arm-none-eabi/9.2.1/../../../../arm-none-eabi/lib/thumb/v7e-m+fp/hard\libcr_c.a(printf.o)
                              ./source/Tracealyzer/trcStreamingRecorder.o (_vsnprintf)
c:/nxp/mcuxpressoide_11.2.1_4149/ide/plugins/com.nxp.mcuxpresso.tools.win32_11.2.0.202008311134/tools/bin/../lib/gcc/arm-none-eabi/9.2.1/../../../../arm-none-eabi/lib/thumb/v7e-m+fp/hard\libcr_c.a(setvbuf.o)
                              c:/nxp/mcuxpressoide_11.2.1_4149/ide/plugins/com.nxp.mcuxpresso.tools.win32_11.2.0.202008311134/tools/bin/../lib/gcc/arm-none-eabi/9.2.1/../../../../arm-none-eabi/lib/thumb/v7e-m+fp/hard\libcr_c.a(initio.o) (setvbuf)
c:/nxp/mcuxpressoide_11.2.1_4149/ide/plugins/com.nxp.mcuxpresso.tools.win32_11.2.0.202008311134/tools/bin/../lib/gcc/arm-none-eabi/9.2.1/../../../../arm-none-eabi/lib/thumb/v7e-m+fp/hard\libcr_c.a(strcpy.o)
                              ./source/Tracealyzer/streamports/Jlink_RTT/SEGGER_RTT.o (strcpy)
c:/nxp/mcuxpressoide_11.2.1_4149/ide/plugins/com.nxp.mcuxpresso.tools.win32_11.2.0.202008311134/tools/bin/../lib/gcc/arm-none-eabi/9.2.1/../../../../arm-none-eabi/lib/thumb/v7e-m+fp/hard\libcr_c.a(strlen.o)
                              ./source/Tracealyzer/streamports/Jlink_RTT/SEGGER_RTT.o (strlen)
c:/nxp/mcuxpressoide_11.2.1_4149/ide/plugins/com.nxp.mcuxpresso.tools.win32_11.2.0.202008311134/tools/bin/../lib/gcc/arm-none-eabi/9.2.1/../../../../arm-none-eabi/lib/thumb/v7e-m+fp/hard\libcr_c.a(__init_alloc.o)
                              c:/nxp/mcuxpressoide_11.2.1_4149/ide/plugins/com.nxp.mcuxpresso.tools.win32_11.2.0.202008311134/tools/bin/../lib/gcc/arm-none-eabi/9.2.1/../../../../arm-none-eabi/lib/thumb/v7e-m+fp/hard\libcr_c.a(alloc.o) (__heaps)
c:/nxp/mcuxpressoide_11.2.1_4149/ide/plugins/com.nxp.mcuxpresso.tools.win32_11.2.0.202008311134/tools/bin/../lib/gcc/arm-none-eabi/9.2.1/../../../../arm-none-eabi/lib/thumb/v7e-m+fp/hard\libcr_c.a(_cr_sbrk.o)
                              c:/nxp/mcuxpressoide_11.2.1_4149/ide/plugins/com.nxp.mcuxpresso.tools.win32_11.2.0.202008311134/tools/bin/../lib/gcc/arm-none-eabi/9.2.1/../../../../arm-none-eabi/lib/thumb/v7e-m+fp/hard\libcr_c.a(alloc.o) (_sbrk)
c:/nxp/mcuxpressoide_11.2.1_4149/ide/plugins/com.nxp.mcuxpresso.tools.win32_11.2.0.202008311134/tools/bin/../lib/gcc/arm-none-eabi/9.2.1/../../../../arm-none-eabi/lib/thumb/v7e-m+fp/hard\libcr_c.a(_deferredlazyseek.o)
                              c:/nxp/mcuxpressoide_11.2.1_4149/ide/plugins/com.nxp.mcuxpresso.tools.win32_11.2.0.202008311134/tools/bin/../lib/gcc/arm-none-eabi/9.2.1/../../../../arm-none-eabi/lib/thumb/v7e-m+fp/hard\libcr_c.a(printf.o) (__flsbuf)
c:/nxp/mcuxpressoide_11.2.1_4149/ide/plugins/com.nxp.mcuxpresso.tools.win32_11.2.0.202008311134/tools/bin/../lib/gcc/arm-none-eabi/9.2.1/../../../../arm-none-eabi/lib/thumb/v7e-m+fp/hard\libcr_c.a(_fdopen.o)
                              c:/nxp/mcuxpressoide_11.2.1_4149/ide/plugins/com.nxp.mcuxpresso.tools.win32_11.2.0.202008311134/tools/bin/../lib/gcc/arm-none-eabi/9.2.1/../../../../arm-none-eabi/lib/thumb/v7e-m+fp/hard\libcr_c.a(initio.o) (_fdopen)
c:/nxp/mcuxpressoide_11.2.1_4149/ide/plugins/com.nxp.mcuxpresso.tools.win32_11.2.0.202008311134/tools/bin/../lib/gcc/arm-none-eabi/9.2.1/../../../../arm-none-eabi/lib/thumb/v7e-m+fp/hard\libcr_c.a(_fflush.o)
                              c:/nxp/mcuxpressoide_11.2.1_4149/ide/plugins/com.nxp.mcuxpresso.tools.win32_11.2.0.202008311134/tools/bin/../lib/gcc/arm-none-eabi/9.2.1/../../../../arm-none-eabi/lib/thumb/v7e-m+fp/hard\libcr_c.a(_deferredlazyseek.o) (_fflush)
c:/nxp/mcuxpressoide_11.2.1_4149/ide/plugins/com.nxp.mcuxpresso.tools.win32_11.2.0.202008311134/tools/bin/../lib/gcc/arm-none-eabi/9.2.1/../../../../arm-none-eabi/lib/thumb/v7e-m+fp/hard\libcr_c.a(_writebuf.o)
                              c:/nxp/mcuxpressoide_11.2.1_4149/ide/plugins/com.nxp.mcuxpresso.tools.win32_11.2.0.202008311134/tools/bin/../lib/gcc/arm-none-eabi/9.2.1/../../../../arm-none-eabi/lib/thumb/v7e-m+fp/hard\libcr_c.a(_deferredlazyseek.o) (_Cwritebuf)
c:/nxp/mcuxpressoide_11.2.1_4149/ide/plugins/com.nxp.mcuxpresso.tools.win32_11.2.0.202008311134/tools/bin/../lib/gcc/arm-none-eabi/9.2.1/../../../../arm-none-eabi/lib/thumb/v7e-m+fp/hard\libcr_c.a(errno.o)
                              c:/nxp/mcuxpressoide_11.2.1_4149/ide/plugins/com.nxp.mcuxpresso.tools.win32_11.2.0.202008311134/tools/bin/../lib/gcc/arm-none-eabi/9.2.1/../../../../arm-none-eabi/lib/thumb/v7e-m+fp/hard\libcr_c.a(_cr_sbrk.o) (errno)
c:/nxp/mcuxpressoide_11.2.1_4149/ide/plugins/com.nxp.mcuxpresso.tools.win32_11.2.0.202008311134/tools/bin/../lib/gcc/arm-none-eabi/9.2.1/../../../../arm-none-eabi/lib/thumb/v7e-m+fp/hard\libcr_c.a(fclose.o)
                              c:/nxp/mcuxpressoide_11.2.1_4149/ide/plugins/com.nxp.mcuxpresso.tools.win32_11.2.0.202008311134/tools/bin/../lib/gcc/arm-none-eabi/9.2.1/../../../../arm-none-eabi/lib/thumb/v7e-m+fp/hard\libcr_c.a(initio.o) (fclose)
c:/nxp/mcuxpressoide_11.2.1_4149/ide/plugins/com.nxp.mcuxpresso.tools.win32_11.2.0.202008311134/tools/bin/../lib/gcc/arm-none-eabi/9.2.1/../../../../arm-none-eabi/lib/thumb/v7e-m+fp/hard\libcr_c.a(fflush.o)
                              c:/nxp/mcuxpressoide_11.2.1_4149/ide/plugins/com.nxp.mcuxpresso.tools.win32_11.2.0.202008311134/tools/bin/../lib/gcc/arm-none-eabi/9.2.1/../../../../arm-none-eabi/lib/thumb/v7e-m+fp/hard\libcr_c.a(fclose.o) (fflush)
c:/nxp/mcuxpressoide_11.2.1_4149/ide/plugins/com.nxp.mcuxpresso.tools.win32_11.2.0.202008311134/tools/bin/../lib/gcc/arm-none-eabi/9.2.1/../../../../arm-none-eabi/lib/thumb/v7e-m+fp/hard\libcr_c.a(fseek.o)
                              c:/nxp/mcuxpressoide_11.2.1_4149/ide/plugins/com.nxp.mcuxpresso.tools.win32_11.2.0.202008311134/tools/bin/../lib/gcc/arm-none-eabi/9.2.1/../../../../arm-none-eabi/lib/thumb/v7e-m+fp/hard\libcr_c.a(_deferredlazyseek.o) (fseek)
c:/nxp/mcuxpressoide_11.2.1_4149/ide/plugins/com.nxp.mcuxpresso.tools.win32_11.2.0.202008311134/tools/bin/../lib/gcc/arm-none-eabi/9.2.1/../../../../arm-none-eabi/lib/thumb/v7e-m+fp/hard\libcr_c.a(ftell.o)
                              c:/nxp/mcuxpressoide_11.2.1_4149/ide/plugins/com.nxp.mcuxpresso.tools.win32_11.2.0.202008311134/tools/bin/../lib/gcc/arm-none-eabi/9.2.1/../../../../arm-none-eabi/lib/thumb/v7e-m+fp/hard\libcr_c.a(fseek.o) (ftell)
c:/nxp/mcuxpressoide_11.2.1_4149/ide/plugins/com.nxp.mcuxpresso.tools.win32_11.2.0.202008311134/tools/bin/../lib/gcc/arm-none-eabi/9.2.1/../../../../arm-none-eabi/lib/thumb/v7e-m+fp/hard\libcr_c.a(remove.o)
                              c:/nxp/mcuxpressoide_11.2.1_4149/ide/plugins/com.nxp.mcuxpresso.tools.win32_11.2.0.202008311134/tools/bin/../lib/gcc/arm-none-eabi/9.2.1/../../../../arm-none-eabi/lib/thumb/v7e-m+fp/hard\libcr_c.a(fclose.o) (remove)
c:/nxp/mcuxpressoide_11.2.1_4149/ide/plugins/com.nxp.mcuxpresso.tools.win32_11.2.0.202008311134/tools/bin/../lib/gcc/arm-none-eabi/9.2.1/../../../../arm-none-eabi/lib/thumb/v7e-m+fp/hard\libcr_c.a(_cr_check_heap.o)
                              c:/nxp/mcuxpressoide_11.2.1_4149/ide/plugins/com.nxp.mcuxpresso.tools.win32_11.2.0.202008311134/tools/bin/../lib/gcc/arm-none-eabi/9.2.1/../../../../arm-none-eabi/lib/thumb/v7e-m+fp/hard\libcr_c.a(_cr_sbrk.o) (__check_heap_overflow)
c:/nxp/mcuxpressoide_11.2.1_4149/ide/plugins/com.nxp.mcuxpresso.tools.win32_11.2.0.202008311134/tools/bin/../lib/gcc/arm-none-eabi/9.2.1/../../../../arm-none-eabi/lib/thumb/v7e-m+fp/hard\libcr_c.a(_do_fflush.o)
                              c:/nxp/mcuxpressoide_11.2.1_4149/ide/plugins/com.nxp.mcuxpresso.tools.win32_11.2.0.202008311134/tools/bin/../lib/gcc/arm-none-eabi/9.2.1/../../../../arm-none-eabi/lib/thumb/v7e-m+fp/hard\libcr_c.a(fflush.o) (_do_fflush)
c:/nxp/mcuxpressoide_11.2.1_4149/ide/plugins/com.nxp.mcuxpresso.tools.win32_11.2.0.202008311134/tools/bin/../lib/gcc/arm-none-eabi/9.2.1/thumb/v7e-m+fp/hard\libcr_eabihelpers.a(division_64.o)
                              ./component/osa/fsl_os_abstraction_free_rtos.o (__aeabi_ldivmod)
c:/nxp/mcuxpressoide_11.2.1_4149/ide/plugins/com.nxp.mcuxpresso.tools.win32_11.2.0.202008311134/tools/bin/../lib/gcc/arm-none-eabi/9.2.1/thumb/v7e-m+fp/hard\libcr_eabihelpers.a(division_idiv0.o)
                              c:/nxp/mcuxpressoide_11.2.1_4149/ide/plugins/com.nxp.mcuxpresso.tools.win32_11.2.0.202008311134/tools/bin/../lib/gcc/arm-none-eabi/9.2.1/thumb/v7e-m+fp/hard\libcr_eabihelpers.a(division_64.o) (__aeabi_idiv0)
c:/nxp/mcuxpressoide_11.2.1_4149/ide/plugins/com.nxp.mcuxpresso.tools.win32_11.2.0.202008311134/tools/bin/../lib/gcc/arm-none-eabi/9.2.1/thumb/v7e-m+fp/hard\libcr_eabihelpers.a(double.o)
                              ./board/board.o (__aeabi_dadd)
c:/nxp/mcuxpressoide_11.2.1_4149/ide/plugins/com.nxp.mcuxpresso.tools.win32_11.2.0.202008311134/tools/bin/../lib/gcc/arm-none-eabi/9.2.1/thumb/v7e-m+fp/hard\libcr_eabihelpers.a(float.o)
                              ./board/board.o (__aeabi_f2d)
c:/nxp/mcuxpressoide_11.2.1_4149/ide/plugins/com.nxp.mcuxpresso.tools.win32_11.2.0.202008311134/tools/bin/../lib/gcc/arm-none-eabi/9.2.1/thumb/v7e-m+fp/hard\libcr_eabihelpers.a(memcpy.o)
                              c:/nxp/mcuxpressoide_11.2.1_4149/ide/plugins/com.nxp.mcuxpresso.tools.win32_11.2.0.202008311134/tools/bin/../lib/gcc/arm-none-eabi/9.2.1/../../../../arm-none-eabi/lib/thumb/v7e-m+fp/hard\libcr_c.a(memcpy.o) (__aeabi_memcpy)
c:/nxp/mcuxpressoide_11.2.1_4149/ide/plugins/com.nxp.mcuxpresso.tools.win32_11.2.0.202008311134/tools/bin/../lib/gcc/arm-none-eabi/9.2.1/../../../../arm-none-eabi/lib/thumb/v7e-m+fp/hard\libcr_semihost_nf.a(__ciob.o)
                              c:/nxp/mcuxpressoide_11.2.1_4149/ide/plugins/com.nxp.mcuxpresso.tools.win32_11.2.0.202008311134/tools/bin/../lib/gcc/arm-none-eabi/9.2.1/../../../../arm-none-eabi/lib/thumb/v7e-m+fp/hard\libcr_c.a(initio.o) (__Ciob)
c:/nxp/mcuxpressoide_11.2.1_4149/ide/plugins/com.nxp.mcuxpresso.tools.win32_11.2.0.202008311134/tools/bin/../lib/gcc/arm-none-eabi/9.2.1/../../../../arm-none-eabi/lib/thumb/v7e-m+fp/hard\libcr_semihost_nf.a(__sys_appexit.o)
                              c:/nxp/mcuxpressoide_11.2.1_4149/ide/plugins/com.nxp.mcuxpresso.tools.win32_11.2.0.202008311134/tools/bin/../lib/gcc/arm-none-eabi/9.2.1/../../../../arm-none-eabi/lib/thumb/v7e-m+fp/hard\libcr_c.a(alloc.o) (__sys_appexit)
c:/nxp/mcuxpressoide_11.2.1_4149/ide/plugins/com.nxp.mcuxpresso.tools.win32_11.2.0.202008311134/tools/bin/../lib/gcc/arm-none-eabi/9.2.1/../../../../arm-none-eabi/lib/thumb/v7e-m+fp/hard\libcr_semihost_nf.a(__sys_close.o)
                              c:/nxp/mcuxpressoide_11.2.1_4149/ide/plugins/com.nxp.mcuxpresso.tools.win32_11.2.0.202008311134/tools/bin/../lib/gcc/arm-none-eabi/9.2.1/../../../../arm-none-eabi/lib/thumb/v7e-m+fp/hard\libcr_c.a(fclose.o) (__sys_close)
c:/nxp/mcuxpressoide_11.2.1_4149/ide/plugins/com.nxp.mcuxpresso.tools.win32_11.2.0.202008311134/tools/bin/../lib/gcc/arm-none-eabi/9.2.1/../../../../arm-none-eabi/lib/thumb/v7e-m+fp/hard\libcr_semihost_nf.a(__sys_flen.o)
                              c:/nxp/mcuxpressoide_11.2.1_4149/ide/plugins/com.nxp.mcuxpresso.tools.win32_11.2.0.202008311134/tools/bin/../lib/gcc/arm-none-eabi/9.2.1/../../../../arm-none-eabi/lib/thumb/v7e-m+fp/hard\libcr_c.a(_writebuf.o) (__sys_flen)
c:/nxp/mcuxpressoide_11.2.1_4149/ide/plugins/com.nxp.mcuxpresso.tools.win32_11.2.0.202008311134/tools/bin/../lib/gcc/arm-none-eabi/9.2.1/../../../../arm-none-eabi/lib/thumb/v7e-m+fp/hard\libcr_semihost_nf.a(__sys_istty.o)
                              c:/nxp/mcuxpressoide_11.2.1_4149/ide/plugins/com.nxp.mcuxpresso.tools.win32_11.2.0.202008311134/tools/bin/../lib/gcc/arm-none-eabi/9.2.1/../../../../arm-none-eabi/lib/thumb/v7e-m+fp/hard\libcr_c.a(_deferredlazyseek.o) (__sys_istty)
c:/nxp/mcuxpressoide_11.2.1_4149/ide/plugins/com.nxp.mcuxpresso.tools.win32_11.2.0.202008311134/tools/bin/../lib/gcc/arm-none-eabi/9.2.1/../../../../arm-none-eabi/lib/thumb/v7e-m+fp/hard\libcr_semihost_nf.a(__sys_remove.o)
                              c:/nxp/mcuxpressoide_11.2.1_4149/ide/plugins/com.nxp.mcuxpresso.tools.win32_11.2.0.202008311134/tools/bin/../lib/gcc/arm-none-eabi/9.2.1/../../../../arm-none-eabi/lib/thumb/v7e-m+fp/hard\libcr_c.a(remove.o) (__sys_remove)
c:/nxp/mcuxpressoide_11.2.1_4149/ide/plugins/com.nxp.mcuxpresso.tools.win32_11.2.0.202008311134/tools/bin/../lib/gcc/arm-none-eabi/9.2.1/../../../../arm-none-eabi/lib/thumb/v7e-m+fp/hard\libcr_semihost_nf.a(__sys_rename.o)
                              c:/nxp/mcuxpressoide_11.2.1_4149/ide/plugins/com.nxp.mcuxpresso.tools.win32_11.2.0.202008311134/tools/bin/../lib/gcc/arm-none-eabi/9.2.1/../../../../arm-none-eabi/lib/thumb/v7e-m+fp/hard\libcr_c.a(remove.o) (__sys_rename)
c:/nxp/mcuxpressoide_11.2.1_4149/ide/plugins/com.nxp.mcuxpresso.tools.win32_11.2.0.202008311134/tools/bin/../lib/gcc/arm-none-eabi/9.2.1/../../../../arm-none-eabi/lib/thumb/v7e-m+fp/hard\libcr_semihost_nf.a(__sys_seek.o)
                              c:/nxp/mcuxpressoide_11.2.1_4149/ide/plugins/com.nxp.mcuxpresso.tools.win32_11.2.0.202008311134/tools/bin/../lib/gcc/arm-none-eabi/9.2.1/../../../../arm-none-eabi/lib/thumb/v7e-m+fp/hard\libcr_c.a(_writebuf.o) (__sys_seek)
c:/nxp/mcuxpressoide_11.2.1_4149/ide/plugins/com.nxp.mcuxpresso.tools.win32_11.2.0.202008311134/tools/bin/../lib/gcc/arm-none-eabi/9.2.1/../../../../arm-none-eabi/lib/thumb/v7e-m+fp/hard\libcr_semihost_nf.a(__sys_tmpnam.o)
                              c:/nxp/mcuxpressoide_11.2.1_4149/ide/plugins/com.nxp.mcuxpresso.tools.win32_11.2.0.202008311134/tools/bin/../lib/gcc/arm-none-eabi/9.2.1/../../../../arm-none-eabi/lib/thumb/v7e-m+fp/hard\libcr_c.a(fclose.o) (__sys_tmpnam)
c:/nxp/mcuxpressoide_11.2.1_4149/ide/plugins/com.nxp.mcuxpresso.tools.win32_11.2.0.202008311134/tools/bin/../lib/gcc/arm-none-eabi/9.2.1/../../../../arm-none-eabi/lib/thumb/v7e-m+fp/hard\libcr_semihost_nf.a(__sys_write.o)
                              c:/nxp/mcuxpressoide_11.2.1_4149/ide/plugins/com.nxp.mcuxpresso.tools.win32_11.2.0.202008311134/tools/bin/../lib/gcc/arm-none-eabi/9.2.1/../../../../arm-none-eabi/lib/thumb/v7e-m+fp/hard\libcr_c.a(alloc.o) (__sys_write)

Discarded input sections

 .text          0x00000000        0x0 ./usb/device/source/khci/usb_device_khci.o
 .data          0x00000000        0x0 ./usb/device/source/khci/usb_device_khci.o
 .bss           0x00000000        0x0 ./usb/device/source/khci/usb_device_khci.o
 .text          0x00000000        0x0 ./usb/device/source/usb_device_ch9.o
 .data          0x00000000        0x0 ./usb/device/source/usb_device_ch9.o
 .bss           0x00000000        0x0 ./usb/device/source/usb_device_ch9.o
 .text          0x00000000        0x0 ./usb/device/source/usb_device_dci.o
 .data          0x00000000        0x0 ./usb/device/source/usb_device_dci.o
 .bss           0x00000000        0x0 ./usb/device/source/usb_device_dci.o
 .text.USB_DeviceStop
                0x00000000        0x8 ./usb/device/source/usb_device_dci.o
 .text.USB_DeviceCancel
                0x00000000       0x14 ./usb/device/source/usb_device_dci.o
 .text.USB_DeviceGetVersion
                0x00000000        0xc ./usb/device/source/usb_device_dci.o
 .text          0x00000000        0x0 ./usb/device/class/cdc/usb_device_cdc_acm.o
 .data          0x00000000        0x0 ./usb/device/class/cdc/usb_device_cdc_acm.o
 .bss           0x00000000        0x0 ./usb/device/class/cdc/usb_device_cdc_acm.o
 .text          0x00000000        0x0 ./usb/device/class/usb_device_class.o
 .data          0x00000000        0x0 ./usb/device/class/usb_device_class.o
 .bss           0x00000000        0x0 ./usb/device/class/usb_device_class.o
 .text.USB_DeviceClassGetHandleByControllerId
                0x00000000       0x34 ./usb/device/class/usb_device_class.o
 .text.USB_DeviceClassDeinit
                0x00000000       0x5c ./usb/device/class/usb_device_class.o
 .text.USB_DeviceClassGetSpeed
                0x00000000       0x1e ./usb/device/class/usb_device_class.o
 .text          0x00000000        0x0 ./startup/startup_mk22f51212.o
 .data          0x00000000        0x0 ./startup/startup_mk22f51212.o
 .bss           0x00000000        0x0 ./startup/startup_mk22f51212.o
 .text.ADC0_IRQHandler
                0x00000000        0x8 ./startup/startup_mk22f51212.o
 .text.FTM0_IRQHandler
                0x00000000        0x8 ./startup/startup_mk22f51212.o
 .text.FTM1_IRQHandler
                0x00000000        0x8 ./startup/startup_mk22f51212.o
 .text.FTM2_IRQHandler
                0x00000000        0x8 ./startup/startup_mk22f51212.o
 .text.PIT0_IRQHandler
                0x00000000        0x8 ./startup/startup_mk22f51212.o
 .text.PIT1_IRQHandler
                0x00000000        0x8 ./startup/startup_mk22f51212.o
 .text.USB0_IRQHandler
                0x00000000        0x8 ./startup/startup_mk22f51212.o
 .text          0x00000000        0x0 ./source/usb/usb_device_descriptor.o
 .data          0x00000000        0x0 ./source/usb/usb_device_descriptor.o
 .bss           0x00000000        0x0 ./source/usb/usb_device_descriptor.o
 .text.USB_DeviceSetSpeed
                0x00000000       0xa0 ./source/usb/usb_device_descriptor.o
 .text          0x00000000        0x0 ./source/usb/virtual_com.o
 .data          0x00000000        0x0 ./source/usb/virtual_com.o
 .bss           0x00000000        0x0 ./source/usb/virtual_com.o
 .text.get_USB_Error
                0x00000000        0xc ./source/usb/virtual_com.o
 .text          0x00000000        0x0 ./source/Tracealyzer/streamports/Jlink_RTT/SEGGER_RTT.o
 .data          0x00000000        0x0 ./source/Tracealyzer/streamports/Jlink_RTT/SEGGER_RTT.o
 .bss           0x00000000        0x0 ./source/Tracealyzer/streamports/Jlink_RTT/SEGGER_RTT.o
 .text._PostTerminalSwitch.constprop.0
                0x00000000       0x28 ./source/Tracealyzer/streamports/Jlink_RTT/SEGGER_RTT.o
 .text.SEGGER_RTT_WriteWithOverwriteNoLock
                0x00000000       0xb4 ./source/Tracealyzer/streamports/Jlink_RTT/SEGGER_RTT.o
 .text.SEGGER_RTT_WriteSkipNoLock
                0x00000000       0xb0 ./source/Tracealyzer/streamports/Jlink_RTT/SEGGER_RTT.o
 .text.SEGGER_RTT_WriteString
                0x00000000       0x1c ./source/Tracealyzer/streamports/Jlink_RTT/SEGGER_RTT.o
 .text.SEGGER_RTT_GetKey
                0x00000000       0x20 ./source/Tracealyzer/streamports/Jlink_RTT/SEGGER_RTT.o
 .text.SEGGER_RTT_WaitKey
                0x00000000        0xc ./source/Tracealyzer/streamports/Jlink_RTT/SEGGER_RTT.o
 .text.SEGGER_RTT_HasKey
                0x00000000       0x1c ./source/Tracealyzer/streamports/Jlink_RTT/SEGGER_RTT.o
 .text.SEGGER_RTT_HasData
                0x00000000       0x14 ./source/Tracealyzer/streamports/Jlink_RTT/SEGGER_RTT.o
 .text.SEGGER_RTT_AllocDownBuffer
                0x00000000       0x60 ./source/Tracealyzer/streamports/Jlink_RTT/SEGGER_RTT.o
 .text.SEGGER_RTT_AllocUpBuffer
                0x00000000       0x68 ./source/Tracealyzer/streamports/Jlink_RTT/SEGGER_RTT.o
 .text.SEGGER_RTT_SetNameUpBuffer
                0x00000000       0x3c ./source/Tracealyzer/streamports/Jlink_RTT/SEGGER_RTT.o
 .text.SEGGER_RTT_SetNameDownBuffer
                0x00000000       0x3c ./source/Tracealyzer/streamports/Jlink_RTT/SEGGER_RTT.o
 .text.SEGGER_RTT_SetFlagsUpBuffer
                0x00000000       0x3c ./source/Tracealyzer/streamports/Jlink_RTT/SEGGER_RTT.o
 .text.SEGGER_RTT_SetFlagsDownBuffer
                0x00000000       0x3c ./source/Tracealyzer/streamports/Jlink_RTT/SEGGER_RTT.o
 .text.SEGGER_RTT_Init
                0x00000000        0x4 ./source/Tracealyzer/streamports/Jlink_RTT/SEGGER_RTT.o
 .text.SEGGER_RTT_SetTerminal
                0x00000000       0x84 ./source/Tracealyzer/streamports/Jlink_RTT/SEGGER_RTT.o
 .text.SEGGER_RTT_TerminalOut
                0x00000000       0x9c ./source/Tracealyzer/streamports/Jlink_RTT/SEGGER_RTT.o
 .bss._ActiveTerminal
                0x00000000        0x1 ./source/Tracealyzer/streamports/Jlink_RTT/SEGGER_RTT.o
 .rodata._aTerminalId
                0x00000000       0x10 ./source/Tracealyzer/streamports/Jlink_RTT/SEGGER_RTT.o
 .text          0x00000000        0x0 ./source/Tracealyzer/streamports/Jlink_RTT/trcStreamingPort.o
 .data          0x00000000        0x0 ./source/Tracealyzer/streamports/Jlink_RTT/trcStreamingPort.o
 .bss           0x00000000        0x0 ./source/Tracealyzer/streamports/Jlink_RTT/trcStreamingPort.o
 .text          0x00000000        0x0 ./source/Tracealyzer/trcKernelPort.o
 .data          0x00000000        0x0 ./source/Tracealyzer/trcKernelPort.o
 .bss           0x00000000        0x0 ./source/Tracealyzer/trcKernelPort.o
 .text.prvTraceGetQueueNumber
                0x00000000        0x4 ./source/Tracealyzer/trcKernelPort.o
 .text.prvTraceGetQueueType
                0x00000000        0x4 ./source/Tracealyzer/trcKernelPort.o
 .text.prvTraceGetTaskNumberLow16
                0x00000000        0xa ./source/Tracealyzer/trcKernelPort.o
 .text.prvTraceSetTaskNumberLow16
                0x00000000       0x1a ./source/Tracealyzer/trcKernelPort.o
 .text.prvTraceGetQueueNumberLow16
                0x00000000        0xa ./source/Tracealyzer/trcKernelPort.o
 .text.prvTraceSetQueueNumberLow16
                0x00000000       0x1a ./source/Tracealyzer/trcKernelPort.o
 .text.prvRemoveTaskFromStackMonitor
                0x00000000       0x24 ./source/Tracealyzer/trcKernelPort.o
 .text.vTraceSetQueueName
                0x00000000        0x4 ./source/Tracealyzer/trcKernelPort.o
 .text.vTraceSetSemaphoreName
                0x00000000        0x4 ./source/Tracealyzer/trcKernelPort.o
 .text.vTraceSetMutexName
                0x00000000        0x4 ./source/Tracealyzer/trcKernelPort.o
 .text.prvTraceIsSchedulerSuspended
                0x00000000        0xe ./source/Tracealyzer/trcKernelPort.o
 .text          0x00000000        0x0 ./source/Tracealyzer/trcSnapshotRecorder.o
 .data          0x00000000        0x0 ./source/Tracealyzer/trcSnapshotRecorder.o
 .bss           0x00000000        0x0 ./source/Tracealyzer/trcSnapshotRecorder.o
 .debug_info    0x00000000      0x3b8 ./source/Tracealyzer/trcSnapshotRecorder.o
 .debug_abbrev  0x00000000       0xd2 ./source/Tracealyzer/trcSnapshotRecorder.o
 .debug_aranges
                0x00000000       0x18 ./source/Tracealyzer/trcSnapshotRecorder.o
 .debug_line    0x00000000      0x28f ./source/Tracealyzer/trcSnapshotRecorder.o
 .debug_str     0x00000000      0x3eb ./source/Tracealyzer/trcSnapshotRecorder.o
 .comment       0x00000000       0x7a ./source/Tracealyzer/trcSnapshotRecorder.o
 .ARM.attributes
                0x00000000       0x39 ./source/Tracealyzer/trcSnapshotRecorder.o
 .text          0x00000000        0x0 ./source/Tracealyzer/trcStreamingRecorder.o
 .data          0x00000000        0x0 ./source/Tracealyzer/trcStreamingRecorder.o
 .bss           0x00000000        0x0 ./source/Tracealyzer/trcStreamingRecorder.o
 .text.prvAllocateBufferPage
                0x00000000       0x34 ./source/Tracealyzer/trcStreamingRecorder.o
 .text.vTraceSetFrequency
                0x00000000        0xc ./source/Tracealyzer/trcStreamingRecorder.o
 .text.xTraceGetLastError
                0x00000000       0x1c ./source/Tracealyzer/trcStreamingRecorder.o
 .text.vTraceClearError
                0x00000000       0x2c ./source/Tracealyzer/trcStreamingRecorder.o
 .text.vTraceSetFilterMask
                0x00000000        0xc ./source/Tracealyzer/trcStreamingRecorder.o
 .text.vTraceSetFilterGroup
                0x00000000        0xc ./source/Tracealyzer/trcStreamingRecorder.o
 .text.prvTraceDeleteObjectData
                0x00000000       0x68 ./source/Tracealyzer/trcStreamingRecorder.o
 .text.vTraceStoreKernelObjectName
                0x00000000       0x1c ./source/Tracealyzer/trcStreamingRecorder.o
 .text.xTraceSetISRProperties
                0x00000000       0x24 ./source/Tracealyzer/trcStreamingRecorder.o
 .text.vTracePrint
                0x00000000        0xa ./source/Tracealyzer/trcStreamingRecorder.o
 .rodata.vTraceConsoleChannelPrintF.str1.1
                0x00000000        0xe ./source/Tracealyzer/trcStreamingRecorder.o
 .text.vTraceConsoleChannelPrintF
                0x00000000       0x3c ./source/Tracealyzer/trcStreamingRecorder.o
 .text.prvTraceStoreEvent0
                0x00000000       0x60 ./source/Tracealyzer/trcStreamingRecorder.o
 .text.vTraceInstanceFinishedNow
                0x00000000        0x6 ./source/Tracealyzer/trcStreamingRecorder.o
 .text.vTraceInstanceFinishedNext
                0x00000000        0x6 ./source/Tracealyzer/trcStreamingRecorder.o
 .text.vTraceStoreISREnd
                0x00000000       0x5c ./source/Tracealyzer/trcStreamingRecorder.o
 .text.vTraceStoreISRBegin
                0x00000000       0x54 ./source/Tracealyzer/trcStreamingRecorder.o
 .text.prvPagedEventBufferTransfer
                0x00000000       0xcc ./source/Tracealyzer/trcStreamingRecorder.o
 .text.prvPagedEventBufferGetWritePointer
                0x00000000       0x9c ./source/Tracealyzer/trcStreamingRecorder.o
 .text.prvPagedEventBufferInit
                0x00000000       0x40 ./source/Tracealyzer/trcStreamingRecorder.o
 .bss.DroppedEventCounter
                0x00000000        0x4 ./source/Tracealyzer/trcStreamingRecorder.o
 .bss.EventBuffer
                0x00000000        0x4 ./source/Tracealyzer/trcStreamingRecorder.o
 .bss.ISR_stack
                0x00000000       0x20 ./source/Tracealyzer/trcStreamingRecorder.o
 .bss.PageInfo  0x00000000       0x50 ./source/Tracealyzer/trcStreamingRecorder.o
 .bss.consoleChannel.7622
                0x00000000        0x4 ./source/Tracealyzer/trcStreamingRecorder.o
 .bss.isPendingContextSwitch
                0x00000000        0x4 ./source/Tracealyzer/trcStreamingRecorder.o
 .data.TotalBytesRemaining
                0x00000000        0x4 ./source/Tracealyzer/trcStreamingRecorder.o
 .data.TotalBytesRemaining_LowWaterMark
                0x00000000        0x4 ./source/Tracealyzer/trcStreamingRecorder.o
 .data.currentWritePage.7978
                0x00000000        0x4 ./source/Tracealyzer/trcStreamingRecorder.o
 .data.lastPage.7960
                0x00000000        0x1 ./source/Tracealyzer/trcStreamingRecorder.o
 .text          0x00000000        0x0 ./source/BRDUINO_Nano.o
 .data          0x00000000        0x0 ./source/BRDUINO_Nano.o
 .bss           0x00000000        0x0 ./source/BRDUINO_Nano.o
 .rodata.vApplicationMallocFailedHook.str1.1
                0x00000000       0x13 ./source/BRDUINO_Nano.o
 .text.vApplicationMallocFailedHook
                0x00000000        0xc ./source/BRDUINO_Nano.o
 .rodata.vApplicationStackOverflowHook.str1.1
                0x00000000       0x13 ./source/BRDUINO_Nano.o
 .text.vApplicationStackOverflowHook
                0x00000000        0xc ./source/BRDUINO_Nano.o
 .bss.TaskCtl   0x00000000        0x4 ./source/BRDUINO_Nano.o
 .bss.bInitialized
                0x00000000        0x1 ./source/BRDUINO_Nano.o
 .text          0x00000000        0x0 ./source/CmdInfo.o
 .data          0x00000000        0x0 ./source/CmdInfo.o
 .bss           0x00000000        0x0 ./source/CmdInfo.o
 .text.InitInfoCommandHandler
                0x00000000        0x4 ./source/CmdInfo.o
 .text          0x00000000        0x0 ./source/CmdSystem.o
 .data          0x00000000        0x0 ./source/CmdSystem.o
 .bss           0x00000000        0x0 ./source/CmdSystem.o
 .text.InitSystemCommandHandler
                0x00000000        0x4 ./source/CmdSystem.o
 .text          0x00000000        0x0 ./source/CommandHandler.o
 .data          0x00000000        0x0 ./source/CommandHandler.o
 .bss           0x00000000        0x0 ./source/CommandHandler.o
 .bss.poll_timer
                0x00000000        0x4 ./source/CommandHandler.o
 .text          0x00000000        0x0 ./source/Misc.o
 .data          0x00000000        0x0 ./source/Misc.o
 .bss           0x00000000        0x0 ./source/Misc.o
 .text.SetVal_16B
                0x00000000        0x8 ./source/Misc.o
 .text.SetVal_32B
                0x00000000       0x10 ./source/Misc.o
 .text.SetVal_FloatB
                0x00000000        0x8 ./source/Misc.o
 .text.GetVal_Float
                0x00000000       0x1a ./source/Misc.o
 .text.GetVal_FloatB
                0x00000000       0x1a ./source/Misc.o
 .text.SwapEndianessVector
                0x00000000       0x22 ./source/Misc.o
 .text.GetBitNumber
                0x00000000       0x18 ./source/Misc.o
 .text.GetSysclkTimerHandle
                0x00000000       0x28 ./source/Misc.o
 .text.ReleaseSysclkTimerHandle
                0x00000000       0x18 ./source/Misc.o
 .text.ReleaseAllSysclkTimerHandles
                0x00000000        0xc ./source/Misc.o
 .text.SetSysclkTimer
                0x00000000        0x2 ./source/Misc.o
 .text.GetSysclkTimer
                0x00000000        0x4 ./source/Misc.o
 .text.Sleep    0x00000000        0x4 ./source/Misc.o
 .text.GetBitPositionInArray
                0x00000000       0x2c ./source/Misc.o
 .bss.sysclk_in_use
                0x00000000        0x1 ./source/Misc.o
 .text          0x00000000        0x0 ./source/System.o
 .data          0x00000000        0x0 ./source/System.o
 .bss           0x00000000        0x0 ./source/System.o
 .text          0x00000000        0x0 ./source/crc.o
 .data          0x00000000        0x0 ./source/crc.o
 .bss           0x00000000        0x0 ./source/crc.o
 .text          0x00000000        0x0 ./source/semihost_hardfault.o
 .data          0x00000000        0x0 ./source/semihost_hardfault.o
 .bss           0x00000000        0x0 ./source/semihost_hardfault.o
 .text          0x00000000        0x0 ./source/uart.o
 .data          0x00000000        0x0 ./source/uart.o
 .bss           0x00000000        0x0 ./source/uart.o
 .text.UART_RestoreDefaultIFdescriptors
                0x00000000       0x14 ./source/uart.o
 .text.GetIFdescriptorPtr
                0x00000000        0x8 ./source/uart.o
 .text.WriteIFdescriptorID
                0x00000000       0x24 ./source/uart.o
 .text.GetSelectCmdIF
                0x00000000        0x8 ./source/uart.o
 .text.GetSelectCmdIFnr
                0x00000000       0x10 ./source/uart.o
 .text.CheckCmdIF
                0x00000000       0x10 ./source/uart.o
 .text.GetUARTfromIF
                0x00000000       0x10 ./source/uart.o
 .text.GetUARTdescriptor
                0x00000000       0x10 ./source/uart.o
 .text.GetUARTfunction
                0x00000000       0x10 ./source/uart.o
 .text.UART_EnableIRQ
                0x00000000       0x58 ./source/uart.o
 .text.UART_DisableIRQ
                0x00000000       0x38 ./source/uart.o
 .text.UART_ChangeBaudrate
                0x00000000       0x26 ./source/uart.o
 .text.UART_GetBaudrate
                0x00000000        0xc ./source/uart.o
 .text.UART_ChangeParity
                0x00000000       0x46 ./source/uart.o
 .text.ChangeUARTParameters
                0x00000000       0x34 ./source/uart.o
 .text.UART_GetParity
                0x00000000       0x16 ./source/uart.o
 .text.send_rs485_char
                0x00000000       0x14 ./source/uart.o
 .text.UART_SendPacket
                0x00000000       0x3e ./source/uart.o
 .text.UART_Putchar
                0x00000000        0xc ./source/uart.o
 .text.UART_Getchar_present
                0x00000000        0x8 ./source/uart.o
 .text._write   0x00000000       0x38 ./source/uart.o
 .bss.h1        0x00000000        0x4 ./source/uart.o
 .bss.h2        0x00000000        0x4 ./source/uart.o
 .bss.packet_len
                0x00000000        0x4 ./source/uart.o
 .rodata.UART_descriptor_default
                0x00000000       0x18 ./source/uart.o
 .text          0x00000000        0x0 ./freertos/freertos_kernel/portable/MemMang/heap_4.o
 .data          0x00000000        0x0 ./freertos/freertos_kernel/portable/MemMang/heap_4.o
 .bss           0x00000000        0x0 ./freertos/freertos_kernel/portable/MemMang/heap_4.o
 .text.xPortGetFreeHeapSize
                0x00000000        0xc ./freertos/freertos_kernel/portable/MemMang/heap_4.o
 .text.xPortGetMinimumEverFreeHeapSize
                0x00000000        0xc ./freertos/freertos_kernel/portable/MemMang/heap_4.o
 .text.vPortInitialiseBlocks
                0x00000000        0x2 ./freertos/freertos_kernel/portable/MemMang/heap_4.o
 .text.vPortGetHeapStats
                0x00000000       0x84 ./freertos/freertos_kernel/portable/MemMang/heap_4.o
 .text          0x00000000        0x0 ./freertos/freertos_kernel/portable/GCC/ARM_CM4F/port.o
 .data          0x00000000        0x0 ./freertos/freertos_kernel/portable/GCC/ARM_CM4F/port.o
 .bss           0x00000000        0x0 ./freertos/freertos_kernel/portable/GCC/ARM_CM4F/port.o
 .text.vPortEndScheduler
                0x00000000       0x24 ./freertos/freertos_kernel/portable/GCC/ARM_CM4F/port.o
 .text          0x00000000        0x0 ./freertos/freertos_kernel/croutine.o
 .data          0x00000000        0x0 ./freertos/freertos_kernel/croutine.o
 .bss           0x00000000        0x0 ./freertos/freertos_kernel/croutine.o
 .debug_info    0x00000000      0x3b8 ./freertos/freertos_kernel/croutine.o
 .debug_abbrev  0x00000000       0xd2 ./freertos/freertos_kernel/croutine.o
 .debug_aranges
                0x00000000       0x18 ./freertos/freertos_kernel/croutine.o
 .debug_line    0x00000000      0x28c ./freertos/freertos_kernel/croutine.o
 .debug_str     0x00000000      0x3e6 ./freertos/freertos_kernel/croutine.o
 .comment       0x00000000       0x7a ./freertos/freertos_kernel/croutine.o
 .ARM.attributes
                0x00000000       0x39 ./freertos/freertos_kernel/croutine.o
 .text          0x00000000        0x0 ./freertos/freertos_kernel/event_groups.o
 .data          0x00000000        0x0 ./freertos/freertos_kernel/event_groups.o
 .bss           0x00000000        0x0 ./freertos/freertos_kernel/event_groups.o
 .text.xEventGroupCreate
                0x00000000       0x1a ./freertos/freertos_kernel/event_groups.o
 .text.xEventGroupWaitBits
                0x00000000      0x110 ./freertos/freertos_kernel/event_groups.o
 .text.xEventGroupClearBits
                0x00000000       0x46 ./freertos/freertos_kernel/event_groups.o
 .text.vEventGroupClearBitsCallback
                0x00000000        0x4 ./freertos/freertos_kernel/event_groups.o
 .text.xEventGroupClearBitsFromISR
                0x00000000       0x10 ./freertos/freertos_kernel/event_groups.o
 .text.xEventGroupGetBitsFromISR
                0x00000000       0x1c ./freertos/freertos_kernel/event_groups.o
 .text.xEventGroupSetBits
                0x00000000       0x86 ./freertos/freertos_kernel/event_groups.o
 .text.xEventGroupSync
                0x00000000       0xdc ./freertos/freertos_kernel/event_groups.o
 .text.vEventGroupSetBitsCallback
                0x00000000        0x4 ./freertos/freertos_kernel/event_groups.o
 .text.vEventGroupDelete
                0x00000000       0x40 ./freertos/freertos_kernel/event_groups.o
 .text.xEventGroupSetBitsFromISR
                0x00000000       0x10 ./freertos/freertos_kernel/event_groups.o
 .text.uxEventGroupGetNumber
                0x00000000        0x6 ./freertos/freertos_kernel/event_groups.o
 .text.vEventGroupSetNumber
                0x00000000        0x4 ./freertos/freertos_kernel/event_groups.o
 .debug_info    0x00000000     0x11ff ./freertos/freertos_kernel/event_groups.o
 .debug_abbrev  0x00000000      0x35c ./freertos/freertos_kernel/event_groups.o
 .debug_loc     0x00000000      0xb91 ./freertos/freertos_kernel/event_groups.o
 .debug_aranges
                0x00000000       0x80 ./freertos/freertos_kernel/event_groups.o
 .debug_ranges  0x00000000       0xc0 ./freertos/freertos_kernel/event_groups.o
 .debug_line    0x00000000      0xb25 ./freertos/freertos_kernel/event_groups.o
 .debug_str     0x00000000      0x930 ./freertos/freertos_kernel/event_groups.o
 .comment       0x00000000       0x7a ./freertos/freertos_kernel/event_groups.o
 .debug_frame   0x00000000      0x140 ./freertos/freertos_kernel/event_groups.o
 .ARM.attributes
                0x00000000       0x34 ./freertos/freertos_kernel/event_groups.o
 .text          0x00000000        0x0 ./freertos/freertos_kernel/list.o
 .data          0x00000000        0x0 ./freertos/freertos_kernel/list.o
 .bss           0x00000000        0x0 ./freertos/freertos_kernel/list.o
 .text          0x00000000        0x0 ./freertos/freertos_kernel/queue.o
 .data          0x00000000        0x0 ./freertos/freertos_kernel/queue.o
 .bss           0x00000000        0x0 ./freertos/freertos_kernel/queue.o
 .text.xQueueCreateCountingSemaphore
                0x00000000       0x90 ./freertos/freertos_kernel/queue.o
 .text.xQueueGiveMutexRecursive
                0x00000000       0x3c ./freertos/freertos_kernel/queue.o
 .text.MyWrapper
                0x00000000      0x12c ./freertos/freertos_kernel/queue.o
 .text.xQueueGiveFromISR
                0x00000000        0x6 ./freertos/freertos_kernel/queue.o
 .text.xQueueSemaphoreTake
                0x00000000      0x2fc ./freertos/freertos_kernel/queue.o
 .text.xQueueTakeMutexRecursive
                0x00000000       0x44 ./freertos/freertos_kernel/queue.o
 .text.xQueuePeek
                0x00000000      0x24c ./freertos/freertos_kernel/queue.o
 .text.xQueueReceiveFromISR
                0x00000000      0x110 ./freertos/freertos_kernel/queue.o
 .text.xQueuePeekFromISR
                0x00000000       0x76 ./freertos/freertos_kernel/queue.o
 .text.uxQueueMessagesWaiting
                0x00000000       0x2a ./freertos/freertos_kernel/queue.o
 .text.uxQueueSpacesAvailable
                0x00000000       0x2e ./freertos/freertos_kernel/queue.o
 .text.uxQueueMessagesWaitingFromISR
                0x00000000       0x18 ./freertos/freertos_kernel/queue.o
 .text.ucQueueGetQueueType
                0x00000000        0x6 ./freertos/freertos_kernel/queue.o
 .text.xQueueIsQueueEmptyFromISR
                0x00000000       0x1e ./freertos/freertos_kernel/queue.o
 .text.xQueueIsQueueFullFromISR
                0x00000000       0x20 ./freertos/freertos_kernel/queue.o
 .text.pcQueueGetName
                0x00000000       0x24 ./freertos/freertos_kernel/queue.o
 .text          0x00000000        0x0 ./freertos/freertos_kernel/stream_buffer.o
 .data          0x00000000        0x0 ./freertos/freertos_kernel/stream_buffer.o
 .bss           0x00000000        0x0 ./freertos/freertos_kernel/stream_buffer.o
 .text.prvBytesInBuffer
                0x00000000       0x12 ./freertos/freertos_kernel/stream_buffer.o
 .text.prvReadBytesFromBuffer
                0x00000000       0x94 ./freertos/freertos_kernel/stream_buffer.o
 .text.prvInitialiseNewStreamBuffer
                0x00000000       0x46 ./freertos/freertos_kernel/stream_buffer.o
 .text.prvWriteBytesToBuffer.part.0
                0x00000000       0x72 ./freertos/freertos_kernel/stream_buffer.o
 .text.prvWriteMessageToBuffer
                0x00000000       0x54 ./freertos/freertos_kernel/stream_buffer.o
 .text.xStreamBufferGenericCreate
                0x00000000       0x76 ./freertos/freertos_kernel/stream_buffer.o
 .text.vStreamBufferDelete
                0x00000000       0x26 ./freertos/freertos_kernel/stream_buffer.o
 .text.xStreamBufferReset
                0x00000000       0x4c ./freertos/freertos_kernel/stream_buffer.o
 .text.xStreamBufferSetTriggerLevel
                0x00000000       0x28 ./freertos/freertos_kernel/stream_buffer.o
 .text.xStreamBufferSpacesAvailable
                0x00000000       0x28 ./freertos/freertos_kernel/stream_buffer.o
 .text.xStreamBufferBytesAvailable
                0x00000000       0x18 ./freertos/freertos_kernel/stream_buffer.o
 .text.xStreamBufferSend
                0x00000000      0x10a ./freertos/freertos_kernel/stream_buffer.o
 .text.xStreamBufferSendFromISR
                0x00000000       0x9a ./freertos/freertos_kernel/stream_buffer.o
 .text.xStreamBufferReceive
                0x00000000       0xfa ./freertos/freertos_kernel/stream_buffer.o
 .text.xStreamBufferNextMessageLengthBytes
                0x00000000       0x56 ./freertos/freertos_kernel/stream_buffer.o
 .text.xStreamBufferReceiveFromISR
                0x00000000       0xc4 ./freertos/freertos_kernel/stream_buffer.o
 .text.xStreamBufferIsEmpty
                0x00000000       0x20 ./freertos/freertos_kernel/stream_buffer.o
 .text.xStreamBufferIsFull
                0x00000000       0x30 ./freertos/freertos_kernel/stream_buffer.o
 .text.xStreamBufferSendCompletedFromISR
                0x00000000       0x4c ./freertos/freertos_kernel/stream_buffer.o
 .text.xStreamBufferReceiveCompletedFromISR
                0x00000000       0x4c ./freertos/freertos_kernel/stream_buffer.o
 .text.uxStreamBufferGetStreamBufferNumber
                0x00000000        0x4 ./freertos/freertos_kernel/stream_buffer.o
 .text.vStreamBufferSetStreamBufferNumber
                0x00000000        0x4 ./freertos/freertos_kernel/stream_buffer.o
 .text.ucStreamBufferGetStreamBufferType
                0x00000000        0x8 ./freertos/freertos_kernel/stream_buffer.o
 .debug_info    0x00000000     0x1f3b ./freertos/freertos_kernel/stream_buffer.o
 .debug_abbrev  0x00000000      0x3db ./freertos/freertos_kernel/stream_buffer.o
 .debug_loc     0x00000000     0x1652 ./freertos/freertos_kernel/stream_buffer.o
 .debug_aranges
                0x00000000       0xd0 ./freertos/freertos_kernel/stream_buffer.o
 .debug_ranges  0x00000000      0x110 ./freertos/freertos_kernel/stream_buffer.o
 .debug_line    0x00000000     0x159e ./freertos/freertos_kernel/stream_buffer.o
 .debug_str     0x00000000      0xb19 ./freertos/freertos_kernel/stream_buffer.o
 .comment       0x00000000       0x7a ./freertos/freertos_kernel/stream_buffer.o
 .debug_frame   0x00000000      0x278 ./freertos/freertos_kernel/stream_buffer.o
 .ARM.attributes
                0x00000000       0x34 ./freertos/freertos_kernel/stream_buffer.o
 .text          0x00000000        0x0 ./freertos/freertos_kernel/tasks.o
 .data          0x00000000        0x0 ./freertos/freertos_kernel/tasks.o
 .bss           0x00000000        0x0 ./freertos/freertos_kernel/tasks.o
 .text.prvTaskIsTaskSuspended
                0x00000000       0x38 ./freertos/freertos_kernel/tasks.o
 .text.vTaskDelete
                0x00000000      0x14c ./freertos/freertos_kernel/tasks.o
 .text.eTaskGetState
                0x00000000       0x84 ./freertos/freertos_kernel/tasks.o
 .text.uxTaskPriorityGet
                0x00000000       0x20 ./freertos/freertos_kernel/tasks.o
 .text.uxTaskPriorityGetFromISR
                0x00000000       0x30 ./freertos/freertos_kernel/tasks.o
 .text.vTaskPrioritySet
                0x00000000      0x128 ./freertos/freertos_kernel/tasks.o
 .text.vTaskResume
                0x00000000       0xc4 ./freertos/freertos_kernel/tasks.o
 .text.xTaskResumeFromISR
                0x00000000       0xd4 ./freertos/freertos_kernel/tasks.o
 .text.vTaskEndScheduler
                0x00000000       0x20 ./freertos/freertos_kernel/tasks.o
 .text.xTaskGetTickCountFromISR
                0x00000000       0x10 ./freertos/freertos_kernel/tasks.o
 .text.uxTaskGetNumberOfTasks
                0x00000000        0xc ./freertos/freertos_kernel/tasks.o
 .text.pcTaskGetName
                0x00000000       0x24 ./freertos/freertos_kernel/tasks.o
 .text.vTaskDelayUntil
                0x00000000       0xac ./freertos/freertos_kernel/tasks.o
 .text.xTaskCatchUpTicks
                0x00000000       0x38 ./freertos/freertos_kernel/tasks.o
 .text.vTaskSuspend
                0x00000000      0x100 ./freertos/freertos_kernel/tasks.o
 .text.vTaskPlaceOnUnorderedEventList
                0x00000000       0x58 ./freertos/freertos_kernel/tasks.o
 .text.vTaskRemoveFromUnorderedEventList
                0x00000000       0xa0 ./freertos/freertos_kernel/tasks.o
 .text.vTaskSetTimeOutState
                0x00000000       0x38 ./freertos/freertos_kernel/tasks.o
 .text.vTaskSetThreadLocalStoragePointer
                0x00000000       0x2c ./freertos/freertos_kernel/tasks.o
 .text.pvTaskGetThreadLocalStoragePointer
                0x00000000       0x1c ./freertos/freertos_kernel/tasks.o
 .text.vTaskGetInfo
                0x00000000       0x7c ./freertos/freertos_kernel/tasks.o
 .text.prvListTasksWithinSingleList
                0x00000000       0x5e ./freertos/freertos_kernel/tasks.o
 .text.uxTaskGetSystemState
                0x00000000       0xa0 ./freertos/freertos_kernel/tasks.o
 .text.xTaskPriorityInherit
                0x00000000       0xe8 ./freertos/freertos_kernel/tasks.o
 .text.vTaskPriorityDisinheritAfterTimeout
                0x00000000       0xf0 ./freertos/freertos_kernel/tasks.o
 .text.uxTaskResetEventItemValue
                0x00000000       0x18 ./freertos/freertos_kernel/tasks.o
 .text.pvTaskIncrementMutexHeldCount
                0x00000000       0x18 ./freertos/freertos_kernel/tasks.o
 .text.ulTaskNotifyTake
                0x00000000       0xa8 ./freertos/freertos_kernel/tasks.o
 .text.xTaskGenericNotify
                0x00000000      0x120 ./freertos/freertos_kernel/tasks.o
 .text.vTaskNotifyGiveFromISR
                0x00000000       0xfc ./freertos/freertos_kernel/tasks.o
 .text.xTaskNotifyStateClear
                0x00000000       0x2c ./freertos/freertos_kernel/tasks.o
 .text.ulTaskNotifyValueClear
                0x00000000       0x2c ./freertos/freertos_kernel/tasks.o
 .text          0x00000000        0x0 ./freertos/freertos_kernel/timers.o
 .data          0x00000000        0x0 ./freertos/freertos_kernel/timers.o
 .bss           0x00000000        0x0 ./freertos/freertos_kernel/timers.o
 .text.xTimerCreate
                0x00000000       0x5a ./freertos/freertos_kernel/timers.o
 .text.xTimerGetTimerDaemonTaskHandle
                0x00000000       0x20 ./freertos/freertos_kernel/timers.o
 .text.xTimerGetPeriod
                0x00000000       0x18 ./freertos/freertos_kernel/timers.o
 .text.vTimerSetReloadMode
                0x00000000       0x3a ./freertos/freertos_kernel/timers.o
 .text.uxTimerGetReloadMode
                0x00000000       0x30 ./freertos/freertos_kernel/timers.o
 .text.xTimerGetExpiryTime
                0x00000000       0x18 ./freertos/freertos_kernel/timers.o
 .text.pcTimerGetName
                0x00000000       0x18 ./freertos/freertos_kernel/timers.o
 .text.xTimerIsTimerActive
                0x00000000       0x30 ./freertos/freertos_kernel/timers.o
 .text.pvTimerGetTimerID
                0x00000000       0x2a ./freertos/freertos_kernel/timers.o
 .text.vTimerSetTimerID
                0x00000000       0x28 ./freertos/freertos_kernel/timers.o
 .text.xTimerPendFunctionCallFromISR
                0x00000000       0x28 ./freertos/freertos_kernel/timers.o
 .text.xTimerPendFunctionCall
                0x00000000       0x40 ./freertos/freertos_kernel/timers.o
 .text.uxTimerGetTimerNumber
                0x00000000        0x4 ./freertos/freertos_kernel/timers.o
 .text.vTimerSetTimerNumber
                0x00000000        0x4 ./freertos/freertos_kernel/timers.o
 .text          0x00000000        0x0 ./drivers/fsl_adc16.o
 .data          0x00000000        0x0 ./drivers/fsl_adc16.o
 .bss           0x00000000        0x0 ./drivers/fsl_adc16.o
 .text.ADC16_Deinit
                0x00000000       0x40 ./drivers/fsl_adc16.o
 .text.ADC16_GetDefaultConfig
                0x00000000       0x28 ./drivers/fsl_adc16.o
 .text.ADC16_SetHardwareCompareConfig
                0x00000000       0x3a ./drivers/fsl_adc16.o
 .text.ADC16_SetHardwareAverage
                0x00000000       0x18 ./drivers/fsl_adc16.o
 .text.ADC16_ClearStatusFlags
                0x00000000        0xe ./drivers/fsl_adc16.o
 .text.ADC16_GetChannelStatusFlags
                0x00000000        0xa ./drivers/fsl_adc16.o
 .text          0x00000000        0x0 ./drivers/fsl_clock.o
 .data          0x00000000        0x0 ./drivers/fsl_clock.o
 .bss           0x00000000        0x0 ./drivers/fsl_clock.o
 .text.CLOCK_FllStableDelay
                0x00000000       0x18 ./drivers/fsl_clock.o
 .text.CLOCK_GetOsc0ErClkFreq
                0x00000000        0x4 ./drivers/fsl_clock.o
 .text.CLOCK_GetFlashClkFreq
                0x00000000       0x20 ./drivers/fsl_clock.o
 .text.CLOCK_GetFlexBusClkFreq
                0x00000000       0x20 ./drivers/fsl_clock.o
 .text.CLOCK_GetPlatClkFreq
                0x00000000        0x4 ./drivers/fsl_clock.o
 .text.CLOCK_SetInternalRefClkConfig
                0x00000000       0x7c ./drivers/fsl_clock.o
 .text.CLOCK_CalcPllDiv
                0x00000000       0xc4 ./drivers/fsl_clock.o
 .text.CLOCK_EnablePll0
                0x00000000       0x34 ./drivers/fsl_clock.o
 .text.CLOCK_SetOsc0MonitorMode
                0x00000000       0x38 ./drivers/fsl_clock.o
 .text.CLOCK_SetRtcOscMonitorMode
                0x00000000       0x20 ./drivers/fsl_clock.o
 .text.CLOCK_SetPll0MonitorMode
                0x00000000       0x38 ./drivers/fsl_clock.o
 .text.CLOCK_GetStatusFlags
                0x00000000       0x34 ./drivers/fsl_clock.o
 .text.CLOCK_ClearStatusFlags
                0x00000000       0x2c ./drivers/fsl_clock.o
 .text.CLOCK_InitOsc0
                0x00000000       0x6c ./drivers/fsl_clock.o
 .text.CLOCK_DeinitOsc0
                0x00000000       0x1c ./drivers/fsl_clock.o
 .text.CLOCK_SetSlowIrcFreq
                0x00000000        0xc ./drivers/fsl_clock.o
 .text.CLOCK_SetFastIrcFreq
                0x00000000        0xc ./drivers/fsl_clock.o
 .text.CLOCK_TrimInternalRefClk
                0x00000000       0xb0 ./drivers/fsl_clock.o
 .text.CLOCK_GetMode
                0x00000000       0x54 ./drivers/fsl_clock.o
 .text.CLOCK_SetFeiMode
                0x00000000       0x60 ./drivers/fsl_clock.o
 .text.CLOCK_SetFbiMode
                0x00000000       0x68 ./drivers/fsl_clock.o
 .text.CLOCK_SetFbeMode
                0x00000000       0x84 ./drivers/fsl_clock.o
 .text.CLOCK_SetBlpiMode
                0x00000000       0x14 ./drivers/fsl_clock.o
 .text.CLOCK_SetBlpeMode
                0x00000000        0x4 ./drivers/fsl_clock.o
 .text.CLOCK_SetPbeMode
                0x00000000       0x50 ./drivers/fsl_clock.o
 .text.CLOCK_SetPeeMode
                0x00000000       0x1c ./drivers/fsl_clock.o
 .text.CLOCK_ExternalModeToFbeModeQuick
                0x00000000       0x38 ./drivers/fsl_clock.o
 .text.CLOCK_InternalModeToFbiModeQuick
                0x00000000       0x28 ./drivers/fsl_clock.o
 .text.CLOCK_BootToFeiMode
                0x00000000        0x4 ./drivers/fsl_clock.o
 .text.CLOCK_BootToBlpiMode
                0x00000000       0x34 ./drivers/fsl_clock.o
 .text.CLOCK_BootToBlpeMode
                0x00000000       0x44 ./drivers/fsl_clock.o
 .text.CLOCK_BootToPeeMode
                0x00000000       0x30 ./drivers/fsl_clock.o
 .text.CLOCK_SetMcgConfig
                0x00000000      0x118 ./drivers/fsl_clock.o
 .rodata.mcgModeMatrix
                0x00000000       0x40 ./drivers/fsl_clock.o
 .rodata.trimRange.7800
                0x00000000       0x10 ./drivers/fsl_clock.o
 .text          0x00000000        0x0 ./drivers/fsl_common.o
 .data          0x00000000        0x0 ./drivers/fsl_common.o
 .bss           0x00000000        0x0 ./drivers/fsl_common.o
 .text.SDK_Malloc
                0x00000000       0x2e ./drivers/fsl_common.o
 .text.SDK_Free
                0x00000000       0x18 ./drivers/fsl_common.o
 .text          0x00000000        0x0 ./drivers/fsl_crc.o
 .data          0x00000000        0x0 ./drivers/fsl_crc.o
 .bss           0x00000000        0x0 ./drivers/fsl_crc.o
 .text.CRC_Init
                0x00000000       0x60 ./drivers/fsl_crc.o
 .text.CRC_GetDefaultConfig
                0x00000000       0x1c ./drivers/fsl_crc.o
 .text.CRC_WriteData
                0x00000000       0x3e ./drivers/fsl_crc.o
 .text.CRC_Get32bitResult
                0x00000000        0x4 ./drivers/fsl_crc.o
 .text.CRC_Get16bitResult
                0x00000000        0xe ./drivers/fsl_crc.o
 .rodata.crc16ccit.7593
                0x00000000       0x10 ./drivers/fsl_crc.o
 .debug_info    0x00000000      0xa09 ./drivers/fsl_crc.o
 .debug_abbrev  0x00000000      0x306 ./drivers/fsl_crc.o
 .debug_loc     0x00000000      0x2d1 ./drivers/fsl_crc.o
 .debug_aranges
                0x00000000       0x40 ./drivers/fsl_crc.o
 .debug_ranges  0x00000000       0xc8 ./drivers/fsl_crc.o
 .debug_line    0x00000000      0x3f8 ./drivers/fsl_crc.o
 .debug_str     0x00000000      0x814 ./drivers/fsl_crc.o
 .comment       0x00000000       0x7a ./drivers/fsl_crc.o
 .debug_frame   0x00000000       0x84 ./drivers/fsl_crc.o
 .ARM.attributes
                0x00000000       0x34 ./drivers/fsl_crc.o
 .text          0x00000000        0x0 ./drivers/fsl_dac.o
 .data          0x00000000        0x0 ./drivers/fsl_dac.o
 .bss           0x00000000        0x0 ./drivers/fsl_dac.o
 .text.DAC_Init
                0x00000000       0x5c ./drivers/fsl_dac.o
 .text.DAC_Deinit
                0x00000000       0x4c ./drivers/fsl_dac.o
 .text.DAC_GetDefaultConfig
                0x00000000       0x16 ./drivers/fsl_dac.o
 .text.DAC_SetBufferConfig
                0x00000000       0x4c ./drivers/fsl_dac.o
 .text.DAC_GetDefaultBufferConfig
                0x00000000       0x1c ./drivers/fsl_dac.o
 .text.DAC_SetBufferValue
                0x00000000       0x14 ./drivers/fsl_dac.o
 .text.DAC_SetBufferReadPointer
                0x00000000       0x14 ./drivers/fsl_dac.o
 .text.DAC_EnableBufferInterrupts
                0x00000000       0x10 ./drivers/fsl_dac.o
 .text.DAC_DisableBufferInterrupts
                0x00000000       0x12 ./drivers/fsl_dac.o
 .text.DAC_GetBufferStatusFlags
                0x00000000        0xa ./drivers/fsl_dac.o
 .text.DAC_ClearBufferStatusFlags
                0x00000000       0x12 ./drivers/fsl_dac.o
 .rodata.s_dacClocks
                0x00000000        0x8 ./drivers/fsl_dac.o
 .debug_info    0x00000000      0xbb8 ./drivers/fsl_dac.o
 .debug_abbrev  0x00000000      0x2fb ./drivers/fsl_dac.o
 .debug_loc     0x00000000      0x3a1 ./drivers/fsl_dac.o
 .debug_aranges
                0x00000000       0x70 ./drivers/fsl_dac.o
 .debug_ranges  0x00000000       0x98 ./drivers/fsl_dac.o
 .debug_line    0x00000000      0x536 ./drivers/fsl_dac.o
 .debug_str     0x00000000     0x10b6 ./drivers/fsl_dac.o
 .comment       0x00000000       0x7a ./drivers/fsl_dac.o
 .debug_frame   0x00000000       0xe4 ./drivers/fsl_dac.o
 .ARM.attributes
                0x00000000       0x34 ./drivers/fsl_dac.o
 .text          0x00000000        0x0 ./drivers/fsl_dspi.o
 .data          0x00000000        0x0 ./drivers/fsl_dspi.o
 .bss           0x00000000        0x0 ./drivers/fsl_dspi.o
 .text.__NVIC_EnableIRQ
                0x00000000       0x1c ./drivers/fsl_dspi.o
 .text.DSPI_MasterGetFormattedCommand.constprop.0
                0x00000000       0x20 ./drivers/fsl_dspi.o
 .text.DSPI_GetInstance
                0x00000000       0x1c ./drivers/fsl_dspi.o
 .text.DSPI_GetDummyDataInstance
                0x00000000       0x10 ./drivers/fsl_dspi.o
 .text.DSPI_MasterTransferFillUpTxFifo
                0x00000000       0xee ./drivers/fsl_dspi.o
 .text.DSPI_MasterTransferHandleIRQ
                0x00000000       0xde ./drivers/fsl_dspi.o
 .text.DSPI_SlaveTransferHandleIRQ
                0x00000000      0x17c ./drivers/fsl_dspi.o
 .text.DSPI_SetDummyData
                0x00000000       0x10 ./drivers/fsl_dspi.o
 .text.DSPI_MasterGetDefaultConfig
                0x00000000       0x34 ./drivers/fsl_dspi.o
 .text.DSPI_SlaveInit
                0x00000000       0xac ./drivers/fsl_dspi.o
 .text.DSPI_SlaveGetDefaultConfig
                0x00000000       0x1a ./drivers/fsl_dspi.o
 .text.DSPI_Deinit
                0x00000000       0x3c ./drivers/fsl_dspi.o
 .text.DSPI_MasterSetBaudRate
                0x00000000       0xd4 ./drivers/fsl_dspi.o
 .text.DSPI_MasterSetDelayScaler
                0x00000000       0x76 ./drivers/fsl_dspi.o
 .text.DSPI_MasterSetDelayTimes
                0x00000000       0xc0 ./drivers/fsl_dspi.o
 .text.DSPI_MasterInit
                0x00000000      0x110 ./drivers/fsl_dspi.o
 .text.DSPI_GetDefaultDataCommandConfig
                0x00000000       0x1c ./drivers/fsl_dspi.o
 .text.DSPI_MasterWriteDataBlocking
                0x00000000       0x4c ./drivers/fsl_dspi.o
 .text.DSPI_MasterWriteCommandDataBlocking
                0x00000000       0x20 ./drivers/fsl_dspi.o
 .text.DSPI_SlaveWriteDataBlocking
                0x00000000        0x4 ./drivers/fsl_dspi.o
 .text.DSPI_EnableInterrupts
                0x00000000       0x20 ./drivers/fsl_dspi.o
 .text.DSPI_MasterTransferCreateHandle
                0x00000000       0x2c ./drivers/fsl_dspi.o
 .text.DSPI_MasterTransferBlocking
                0x00000000      0x2a4 ./drivers/fsl_dspi.o
 .text.DSPI_MasterTransferNonBlocking
                0x00000000      0x148 ./drivers/fsl_dspi.o
 .text.DSPI_MasterHalfDuplexTransferBlocking
                0x00000000       0x70 ./drivers/fsl_dspi.o
 .text.DSPI_MasterHalfDuplexTransferNonBlocking
                0x00000000       0x72 ./drivers/fsl_dspi.o
 .text.DSPI_MasterTransferGetCount
                0x00000000       0x22 ./drivers/fsl_dspi.o
 .text.DSPI_MasterTransferAbort
                0x00000000       0x1c ./drivers/fsl_dspi.o
 .text.DSPI_SlaveTransferCreateHandle
                0x00000000       0x2c ./drivers/fsl_dspi.o
 .text.DSPI_SlaveTransferNonBlocking
                0x00000000      0x154 ./drivers/fsl_dspi.o
 .text.DSPI_SlaveTransferGetCount
                0x00000000       0x20 ./drivers/fsl_dspi.o
 .text.DSPI_SlaveTransferAbort
                0x00000000       0x1e ./drivers/fsl_dspi.o
 .bss.g_dspiDummyData
                0x00000000        0x2 ./drivers/fsl_dspi.o
 .rodata.s_baudratePrescaler
                0x00000000       0x10 ./drivers/fsl_dspi.o
 .rodata.s_baudrateScaler
                0x00000000       0x40 ./drivers/fsl_dspi.o
 .rodata.s_delayPrescaler
                0x00000000       0x10 ./drivers/fsl_dspi.o
 .rodata.s_delayScaler
                0x00000000       0x40 ./drivers/fsl_dspi.o
 .rodata.s_dspiClock
                0x00000000        0x8 ./drivers/fsl_dspi.o
 .rodata.s_dspiIRQ
                0x00000000        0x2 ./drivers/fsl_dspi.o
 .text          0x00000000        0x0 ./drivers/fsl_ftfx_cache.o
 .data          0x00000000        0x0 ./drivers/fsl_ftfx_cache.o
 .bss           0x00000000        0x0 ./drivers/fsl_ftfx_cache.o
 .text.FTFx_CACHE_Init
                0x00000000       0x28 ./drivers/fsl_ftfx_cache.o
 .text.FTFx_CACHE_PflashSetPrefetchSpeculation
                0x00000000       0x3c ./drivers/fsl_ftfx_cache.o
 .text.FTFx_CACHE_PflashGetPrefetchSpeculation
                0x00000000       0x30 ./drivers/fsl_ftfx_cache.o
 .text.fmc_flash_cache_clear
                0x00000000       0x24 ./drivers/fsl_ftfx_cache.o
 .text.fmc_flash_prefetch_speculation_clear
                0x00000000       0x24 ./drivers/fsl_ftfx_cache.o
 .text.FTFx_CACHE_ClearCachePrefetchSpeculation
                0x00000000       0x14 ./drivers/fsl_ftfx_cache.o
 .bss.s_ftfxCommonBitOperation
                0x00000000       0x40 ./drivers/fsl_ftfx_cache.o
 .rodata.s_ftfxCommonBitOperationFunctionCode
                0x00000000       0x1c ./drivers/fsl_ftfx_cache.o
 .debug_info    0x00000000      0xa2f ./drivers/fsl_ftfx_cache.o
 .debug_abbrev  0x00000000      0x2e2 ./drivers/fsl_ftfx_cache.o
 .debug_loc     0x00000000      0x323 ./drivers/fsl_ftfx_cache.o
 .debug_aranges
                0x00000000       0x48 ./drivers/fsl_ftfx_cache.o
 .debug_ranges  0x00000000       0x78 ./drivers/fsl_ftfx_cache.o
 .debug_line    0x00000000      0x415 ./drivers/fsl_ftfx_cache.o
 .debug_str     0x00000000     0x10f2 ./drivers/fsl_ftfx_cache.o
 .comment       0x00000000       0x7a ./drivers/fsl_ftfx_cache.o
 .debug_frame   0x00000000       0xa0 ./drivers/fsl_ftfx_cache.o
 .ARM.attributes
                0x00000000       0x34 ./drivers/fsl_ftfx_cache.o
 .text          0x00000000        0x0 ./drivers/fsl_ftfx_controller.o
 .data          0x00000000        0x0 ./drivers/fsl_ftfx_controller.o
 .bss           0x00000000        0x0 ./drivers/fsl_ftfx_controller.o
 .text.ftfx_command_sequence.isra.0
                0x00000000       0x40 ./drivers/fsl_ftfx_controller.o
 .text.ftfx_check_mem_range
                0x00000000       0x2e ./drivers/fsl_ftfx_controller.o
 .text.ftfx_read_word_from_byte_address
                0x00000000       0x20 ./drivers/fsl_ftfx_controller.o
 .text.ftfx_write_word_to_byte_address
                0x00000000       0x18 ./drivers/fsl_ftfx_controller.o
 .text.FTFx_API_Init
                0x00000000       0x44 ./drivers/fsl_ftfx_controller.o
 .text.FTFx_CMD_Erase
                0x00000000       0x70 ./drivers/fsl_ftfx_controller.o
 .text.FTFx_CMD_EraseAll
                0x00000000       0x28 ./drivers/fsl_ftfx_controller.o
 .text.FTFx_CMD_EraseAllExecuteOnlySegments
                0x00000000       0x28 ./drivers/fsl_ftfx_controller.o
 .text.FTFx_CMD_Program
                0x00000000       0x90 ./drivers/fsl_ftfx_controller.o
 .text.FTFx_CMD_ProgramOnce
                0x00000000       0x78 ./drivers/fsl_ftfx_controller.o
 .text.FTFx_CMD_ReadOnce
                0x00000000       0x80 ./drivers/fsl_ftfx_controller.o
 .text.FTFx_CMD_ReadResource
                0x00000000       0xd8 ./drivers/fsl_ftfx_controller.o
 .text.FTFx_CMD_VerifyErase
                0x00000000       0x90 ./drivers/fsl_ftfx_controller.o
 .text.FTFx_CMD_VerifyEraseAll
                0x00000000       0x20 ./drivers/fsl_ftfx_controller.o
 .text.FTFx_CMD_VerifyEraseAllExecuteOnlySegments
                0x00000000       0x20 ./drivers/fsl_ftfx_controller.o
 .text.FTFx_CMD_VerifyProgram
                0x00000000       0x94 ./drivers/fsl_ftfx_controller.o
 .text.FTFx_CMD_SecurityBypass
                0x00000000       0x40 ./drivers/fsl_ftfx_controller.o
 .text.FTFx_REG_GetSecurityState
                0x00000000       0x40 ./drivers/fsl_ftfx_controller.o
 .bss.s_ftfxRunCommand
                0x00000000       0x40 ./drivers/fsl_ftfx_controller.o
 .rodata.s_ftfxRunCommandFunctionCode
                0x00000000        0xc ./drivers/fsl_ftfx_controller.o
 .debug_info    0x00000000     0x1b15 ./drivers/fsl_ftfx_controller.o
 .debug_abbrev  0x00000000      0x41c ./drivers/fsl_ftfx_controller.o
 .debug_loc     0x00000000     0x15d9 ./drivers/fsl_ftfx_controller.o
 .debug_aranges
                0x00000000       0xa8 ./drivers/fsl_ftfx_controller.o
 .debug_ranges  0x00000000      0x168 ./drivers/fsl_ftfx_controller.o
 .debug_line    0x00000000      0xb9c ./drivers/fsl_ftfx_controller.o
 .debug_str     0x00000000     0x17ff ./drivers/fsl_ftfx_controller.o
 .comment       0x00000000       0x7a ./drivers/fsl_ftfx_controller.o
 .debug_frame   0x00000000      0x1f8 ./drivers/fsl_ftfx_controller.o
 .ARM.attributes
                0x00000000       0x34 ./drivers/fsl_ftfx_controller.o
 .text          0x00000000        0x0 ./drivers/fsl_ftfx_flash.o
 .data          0x00000000        0x0 ./drivers/fsl_ftfx_flash.o
 .bss           0x00000000        0x0 ./drivers/fsl_ftfx_flash.o
 .text.flash_check_range_to_get_index
                0x00000000       0x24 ./drivers/fsl_ftfx_flash.o
 .text.FLASH_Init
                0x00000000       0x90 ./drivers/fsl_ftfx_flash.o
 .text.FLASH_Erase
                0x00000000       0x32 ./drivers/fsl_ftfx_flash.o
 .text.FLASH_EraseAll
                0x00000000        0x4 ./drivers/fsl_ftfx_flash.o
 .text.FLASH_Program
                0x00000000       0x34 ./drivers/fsl_ftfx_flash.o
 .text.FLASH_ProgramOnce
                0x00000000        0x4 ./drivers/fsl_ftfx_flash.o
 .text.FLASH_ReadResource
                0x00000000       0x10 ./drivers/fsl_ftfx_flash.o
 .text.FLASH_ReadOnce
                0x00000000        0x4 ./drivers/fsl_ftfx_flash.o
 .text.FLASH_VerifyErase
                0x00000000       0x32 ./drivers/fsl_ftfx_flash.o
 .text.FLASH_VerifyEraseAll
                0x00000000        0x4 ./drivers/fsl_ftfx_flash.o
 .text.FLASH_VerifyProgram
                0x00000000       0x42 ./drivers/fsl_ftfx_flash.o
 .text.FLASH_GetSecurityState
                0x00000000        0x4 ./drivers/fsl_ftfx_flash.o
 .text.FLASH_SecurityBypass
                0x00000000        0x4 ./drivers/fsl_ftfx_flash.o
 .text.FLASH_IsProtected
                0x00000000       0xcc ./drivers/fsl_ftfx_flash.o
 .text.FLASH_IsExecuteOnly
                0x00000000       0xb0 ./drivers/fsl_ftfx_flash.o
 .text.FLASH_PflashSetProtection
                0x00000000       0x28 ./drivers/fsl_ftfx_flash.o
 .text.FLASH_PflashGetProtection
                0x00000000       0x1c ./drivers/fsl_ftfx_flash.o
 .text.FLASH_GetProperty
                0x00000000       0x62 ./drivers/fsl_ftfx_flash.o
 .rodata.kPFlashDensities
                0x00000000       0x1e ./drivers/fsl_ftfx_flash.o
 .debug_info    0x00000000     0x1dfa ./drivers/fsl_ftfx_flash.o
 .debug_abbrev  0x00000000      0x484 ./drivers/fsl_ftfx_flash.o
 .debug_loc     0x00000000     0x1268 ./drivers/fsl_ftfx_flash.o
 .debug_aranges
                0x00000000       0xa8 ./drivers/fsl_ftfx_flash.o
 .debug_ranges  0x00000000      0x218 ./drivers/fsl_ftfx_flash.o
 .debug_line    0x00000000      0xac2 ./drivers/fsl_ftfx_flash.o
 .debug_str     0x00000000     0x1647 ./drivers/fsl_ftfx_flash.o
 .comment       0x00000000       0x7a ./drivers/fsl_ftfx_flash.o
 .debug_frame   0x00000000      0x1e0 ./drivers/fsl_ftfx_flash.o
 .ARM.attributes
                0x00000000       0x34 ./drivers/fsl_ftfx_flash.o
 .text          0x00000000        0x0 ./drivers/fsl_ftfx_flexnvm.o
 .data          0x00000000        0x0 ./drivers/fsl_ftfx_flexnvm.o
 .bss           0x00000000        0x0 ./drivers/fsl_ftfx_flexnvm.o
 .debug_info    0x00000000       0xef ./drivers/fsl_ftfx_flexnvm.o
 .debug_abbrev  0x00000000       0x80 ./drivers/fsl_ftfx_flexnvm.o
 .debug_aranges
                0x00000000       0x18 ./drivers/fsl_ftfx_flexnvm.o
 .debug_line    0x00000000      0x1ca ./drivers/fsl_ftfx_flexnvm.o
 .debug_str     0x00000000      0x239 ./drivers/fsl_ftfx_flexnvm.o
 .comment       0x00000000       0x7a ./drivers/fsl_ftfx_flexnvm.o
 .ARM.attributes
                0x00000000       0x39 ./drivers/fsl_ftfx_flexnvm.o
 .text          0x00000000        0x0 ./drivers/fsl_ftm.o
 .data          0x00000000        0x0 ./drivers/fsl_ftm.o
 .bss           0x00000000        0x0 ./drivers/fsl_ftm.o
 .text.FTM_Deinit
                0x00000000       0x60 ./drivers/fsl_ftm.o
 .text.FTM_UpdatePwmDutycycle
                0x00000000       0x68 ./drivers/fsl_ftm.o
 .text.FTM_SetupPwmMode
                0x00000000      0x104 ./drivers/fsl_ftm.o
 .text.FTM_SetupInputCapture
                0x00000000       0x56 ./drivers/fsl_ftm.o
 .text.FTM_SetupOutputCompare
                0x00000000       0x40 ./drivers/fsl_ftm.o
 .text.FTM_SetupDualEdgeCapture
                0x00000000       0x5a ./drivers/fsl_ftm.o
 .text.FTM_SetupQuadDecode
                0x00000000       0x6e ./drivers/fsl_ftm.o
 .text.FTM_SetupFault
                0x00000000       0x4c ./drivers/fsl_ftm.o
 .text.FTM_EnableInterrupts
                0x00000000       0x3a ./drivers/fsl_ftm.o
 .text.FTM_DisableInterrupts
                0x00000000       0x3a ./drivers/fsl_ftm.o
 .text.FTM_GetEnabledInterrupts
                0x00000000       0x6c ./drivers/fsl_ftm.o
 .text.FTM_GetStatusFlags
                0x00000000       0x28 ./drivers/fsl_ftm.o
 .text.FTM_ClearStatusFlags
                0x00000000       0x30 ./drivers/fsl_ftm.o
 .text          0x00000000        0x0 ./drivers/fsl_gpio.o
 .data          0x00000000        0x0 ./drivers/fsl_gpio.o
 .bss           0x00000000        0x0 ./drivers/fsl_gpio.o
 .text.GPIO_PortGetInterruptFlags
                0x00000000       0x48 ./drivers/fsl_gpio.o
 .text.GPIO_PortClearInterruptFlags
                0x00000000       0x48 ./drivers/fsl_gpio.o
 .rodata.s_portBases
                0x00000000       0x14 ./drivers/fsl_gpio.o
 .text          0x00000000        0x0 ./drivers/fsl_i2c.o
 .data          0x00000000        0x0 ./drivers/fsl_i2c.o
 .bss           0x00000000        0x0 ./drivers/fsl_i2c.o
 .text.__NVIC_EnableIRQ
                0x00000000       0x1c ./drivers/fsl_i2c.o
 .text.I2C_CheckAndClearError
                0x00000000       0x1c ./drivers/fsl_i2c.o
 .text.I2C_GetInstance
                0x00000000       0x1c ./drivers/fsl_i2c.o
 .text.I2C_MasterDeinit
                0x00000000       0x34 ./drivers/fsl_i2c.o
 .text.I2C_MasterGetDefaultConfig
                0x00000000       0x20 ./drivers/fsl_i2c.o
 .text.I2C_EnableInterrupts
                0x00000000       0x1e ./drivers/fsl_i2c.o
 .text.I2C_DisableInterrupts
                0x00000000       0x1a ./drivers/fsl_i2c.o
 .text.I2C_MasterSetBaudRate
                0x00000000       0x58 ./drivers/fsl_i2c.o
 .text.I2C_MasterInit
                0x00000000       0x84 ./drivers/fsl_i2c.o
 .text.I2C_MasterStop
                0x00000000       0x14 ./drivers/fsl_i2c.o
 .text.I2C_MasterGetStatusFlags
                0x00000000       0x1c ./drivers/fsl_i2c.o
 .text.I2C_MasterStart
                0x00000000       0x32 ./drivers/fsl_i2c.o
 .text.I2C_MasterRepeatedStart
                0x00000000       0x4e ./drivers/fsl_i2c.o
 .text.I2C_MasterTransferHandleIRQ
                0x00000000      0x1c0 ./drivers/fsl_i2c.o
 .text.I2C_SlaveTransferHandleIRQ
                0x00000000      0x1b8 ./drivers/fsl_i2c.o
 .text.I2C_MasterWriteBlocking
                0x00000000       0x6c ./drivers/fsl_i2c.o
 .text.I2C_MasterReadBlocking
                0x00000000       0x7e ./drivers/fsl_i2c.o
 .text.I2C_MasterTransferBlocking
                0x00000000      0x13a ./drivers/fsl_i2c.o
 .text.I2C_MasterTransferCreateHandle
                0x00000000       0x4c ./drivers/fsl_i2c.o
 .text.I2C_MasterTransferNonBlocking
                0x00000000       0xa4 ./drivers/fsl_i2c.o
 .text.I2C_MasterTransferAbort
                0x00000000       0x6e ./drivers/fsl_i2c.o
 .text.I2C_MasterTransferGetCount
                0x00000000       0x12 ./drivers/fsl_i2c.o
 .text.I2C_SlaveInit
                0x00000000      0x108 ./drivers/fsl_i2c.o
 .text.I2C_SlaveDeinit
                0x00000000        0x4 ./drivers/fsl_i2c.o
 .text.I2C_SlaveGetDefaultConfig
                0x00000000       0x1c ./drivers/fsl_i2c.o
 .text.I2C_SlaveWriteBlocking
                0x00000000       0x52 ./drivers/fsl_i2c.o
 .text.I2C_SlaveReadBlocking
                0x00000000       0x62 ./drivers/fsl_i2c.o
 .text.I2C_SlaveTransferCreateHandle
                0x00000000       0x4c ./drivers/fsl_i2c.o
 .text.I2C_SlaveTransferNonBlocking
                0x00000000       0x50 ./drivers/fsl_i2c.o
 .text.I2C_SlaveTransferAbort
                0x00000000       0x1e ./drivers/fsl_i2c.o
 .text.I2C_SlaveTransferGetCount
                0x00000000       0x1c ./drivers/fsl_i2c.o
 .rodata.s_i2cClocks
                0x00000000        0x8 ./drivers/fsl_i2c.o
 .rodata.s_i2cDividerTable
                0x00000000       0x80 ./drivers/fsl_i2c.o
 .rodata.s_i2cIrqs
                0x00000000        0x2 ./drivers/fsl_i2c.o
 .text          0x00000000        0x0 ./drivers/fsl_pit.o
 .data          0x00000000        0x0 ./drivers/fsl_pit.o
 .bss           0x00000000        0x0 ./drivers/fsl_pit.o
 .text.PIT_Deinit
                0x00000000       0x18 ./drivers/fsl_pit.o
 .text          0x00000000        0x0 ./drivers/fsl_rnga.o
 .data          0x00000000        0x0 ./drivers/fsl_rnga.o
 .bss           0x00000000        0x0 ./drivers/fsl_rnga.o
 .text.RNGA_Init
                0x00000000       0x2c ./drivers/fsl_rnga.o
 .text.RNGA_Deinit
                0x00000000       0x10 ./drivers/fsl_rnga.o
 .text.RNGA_GetRandomData
                0x00000000       0x46 ./drivers/fsl_rnga.o
 .text.RNGA_SetMode
                0x00000000       0x12 ./drivers/fsl_rnga.o
 .text.RNGA_GetMode
                0x00000000        0x8 ./drivers/fsl_rnga.o
 .text.RNGA_Seed
                0x00000000        0x4 ./drivers/fsl_rnga.o
 .debug_info    0x00000000      0x6ac ./drivers/fsl_rnga.o
 .debug_abbrev  0x00000000      0x2d5 ./drivers/fsl_rnga.o
 .debug_loc     0x00000000      0x356 ./drivers/fsl_rnga.o
 .debug_aranges
                0x00000000       0x48 ./drivers/fsl_rnga.o
 .debug_ranges  0x00000000       0x50 ./drivers/fsl_rnga.o
 .debug_line    0x00000000      0x3d3 ./drivers/fsl_rnga.o
 .debug_str     0x00000000      0x5ef ./drivers/fsl_rnga.o
 .comment       0x00000000       0x7a ./drivers/fsl_rnga.o
 .debug_frame   0x00000000       0x84 ./drivers/fsl_rnga.o
 .ARM.attributes
                0x00000000       0x34 ./drivers/fsl_rnga.o
 .text          0x00000000        0x0 ./drivers/fsl_rtc.o
 .data          0x00000000        0x0 ./drivers/fsl_rtc.o
 .bss           0x00000000        0x0 ./drivers/fsl_rtc.o
 .text.RTC_CheckDatetimeFormat
                0x00000000       0x90 ./drivers/fsl_rtc.o
 .text.RTC_ConvertDatetimeToSeconds
                0x00000000       0x80 ./drivers/fsl_rtc.o
 .text.RTC_ConvertSecondsToDatetime
                0x00000000       0xac ./drivers/fsl_rtc.o
 .text.RTC_GetDefaultConfig
                0x00000000       0x18 ./drivers/fsl_rtc.o
 .text.RTC_SetDatetime
                0x00000000       0x1e ./drivers/fsl_rtc.o
 .text.RTC_GetDatetime
                0x00000000        0x6 ./drivers/fsl_rtc.o
 .text.RTC_SetAlarm
                0x00000000       0x28 ./drivers/fsl_rtc.o
 .text.RTC_GetAlarm
                0x00000000        0x6 ./drivers/fsl_rtc.o
 .text.RTC_EnableInterrupts
                0x00000000       0x24 ./drivers/fsl_rtc.o
 .text.RTC_DisableInterrupts
                0x00000000       0x26 ./drivers/fsl_rtc.o
 .text.RTC_GetEnabledInterrupts
                0x00000000       0x28 ./drivers/fsl_rtc.o
 .text.RTC_GetStatusFlags
                0x00000000       0x1e ./drivers/fsl_rtc.o
 .text.RTC_Init
                0x00000000       0x5c ./drivers/fsl_rtc.o
 .text.RTC_ClearStatusFlags
                0x00000000       0x1a ./drivers/fsl_rtc.o
 .rodata        0x00000000       0x28 ./drivers/fsl_rtc.o
 .debug_info    0x00000000      0xa97 ./drivers/fsl_rtc.o
 .debug_abbrev  0x00000000      0x345 ./drivers/fsl_rtc.o
 .debug_loc     0x00000000      0x671 ./drivers/fsl_rtc.o
 .debug_aranges
                0x00000000       0x88 ./drivers/fsl_rtc.o
 .debug_ranges  0x00000000       0x90 ./drivers/fsl_rtc.o
 .debug_line    0x00000000      0x808 ./drivers/fsl_rtc.o
 .debug_str     0x00000000      0x833 ./drivers/fsl_rtc.o
 .comment       0x00000000       0x7a ./drivers/fsl_rtc.o
 .debug_frame   0x00000000      0x15c ./drivers/fsl_rtc.o
 .ARM.attributes
                0x00000000       0x34 ./drivers/fsl_rtc.o
 .text          0x00000000        0x0 ./drivers/fsl_sim.o
 .data          0x00000000        0x0 ./drivers/fsl_sim.o
 .bss           0x00000000        0x0 ./drivers/fsl_sim.o
 .text.SIM_SetUsbVoltRegulatorEnableMode
                0x00000000       0x1c ./drivers/fsl_sim.o
 .text.SIM_GetUniqueId
                0x00000000       0x20 ./drivers/fsl_sim.o
 .debug_info    0x00000000      0x38e ./drivers/fsl_sim.o
 .debug_abbrev  0x00000000      0x181 ./drivers/fsl_sim.o
 .debug_loc     0x00000000       0x25 ./drivers/fsl_sim.o
 .debug_aranges
                0x00000000       0x28 ./drivers/fsl_sim.o
 .debug_ranges  0x00000000       0x18 ./drivers/fsl_sim.o
 .debug_line    0x00000000      0x254 ./drivers/fsl_sim.o
 .debug_str     0x00000000      0x3ce ./drivers/fsl_sim.o
 .comment       0x00000000       0x7a ./drivers/fsl_sim.o
 .debug_frame   0x00000000       0x30 ./drivers/fsl_sim.o
 .ARM.attributes
                0x00000000       0x34 ./drivers/fsl_sim.o
 .text          0x00000000        0x0 ./drivers/fsl_smc.o
 .data          0x00000000        0x0 ./drivers/fsl_smc.o
 .bss           0x00000000        0x0 ./drivers/fsl_smc.o
 .text.SMC_EnterStopRamFunc
                0x00000000        0x8 ./drivers/fsl_smc.o
 .text.SMC_PreEnterStopModes
                0x00000000       0x14 ./drivers/fsl_smc.o
 .text.SMC_PostExitStopModes
                0x00000000       0x14 ./drivers/fsl_smc.o
 .text.SMC_PreEnterWaitModes
                0x00000000        0x4 ./drivers/fsl_smc.o
 .text.SMC_PostExitWaitModes
                0x00000000        0x4 ./drivers/fsl_smc.o
 .text.SMC_SetPowerModeRun
                0x00000000        0xc ./drivers/fsl_smc.o
 .text.SMC_SetPowerModeHsrun
                0x00000000       0x10 ./drivers/fsl_smc.o
 .text.SMC_SetPowerModeWait
                0x00000000       0x1c ./drivers/fsl_smc.o
 .text.SMC_SetPowerModeStop
                0x00000000       0x40 ./drivers/fsl_smc.o
 .text.SMC_SetPowerModeVlpr
                0x00000000       0x10 ./drivers/fsl_smc.o
 .text.SMC_SetPowerModeVlpw
                0x00000000        0x4 ./drivers/fsl_smc.o
 .text.SMC_SetPowerModeVlps
                0x00000000       0x34 ./drivers/fsl_smc.o
 .text.SMC_SetPowerModeLls
                0x00000000       0x40 ./drivers/fsl_smc.o
 .text.SMC_SetPowerModeVlls
                0x00000000       0x58 ./drivers/fsl_smc.o
 .bss.g_savedPrimask
                0x00000000        0x4 ./drivers/fsl_smc.o
 .data.s_stopRamFuncArray
                0x00000000       0x18 ./drivers/fsl_smc.o
 .debug_info    0x00000000      0xc13 ./drivers/fsl_smc.o
 .debug_abbrev  0x00000000      0x349 ./drivers/fsl_smc.o
 .debug_loc     0x00000000      0x335 ./drivers/fsl_smc.o
 .debug_aranges
                0x00000000       0x70 ./drivers/fsl_smc.o
 .debug_ranges  0x00000000       0x80 ./drivers/fsl_smc.o
 .debug_line    0x00000000      0x5dc ./drivers/fsl_smc.o
 .debug_str     0x00000000      0xf5e ./drivers/fsl_smc.o
 .comment       0x00000000       0x7a ./drivers/fsl_smc.o
 .debug_frame   0x00000000      0x110 ./drivers/fsl_smc.o
 .ARM.attributes
                0x00000000       0x34 ./drivers/fsl_smc.o
 .text          0x00000000        0x0 ./drivers/fsl_uart.o
 .data          0x00000000        0x0 ./drivers/fsl_uart.o
 .bss           0x00000000        0x0 ./drivers/fsl_uart.o
 .text.UART_TransferGetRxRingBufferLength
                0x00000000       0x16 ./drivers/fsl_uart.o
 .text.UART_Deinit
                0x00000000       0x3c ./drivers/fsl_uart.o
 .text.UART_GetDefaultConfig
                0x00000000       0x1e ./drivers/fsl_uart.o
 .text.UART_SetBaudRate
                0x00000000       0x6a ./drivers/fsl_uart.o
 .text.UART_DisableInterrupts
                0x00000000       0x32 ./drivers/fsl_uart.o
 .text.UART_GetEnabledInterrupts
                0x00000000       0x26 ./drivers/fsl_uart.o
 .text.UART_GetStatusFlags
                0x00000000       0x16 ./drivers/fsl_uart.o
 .text.UART_TransferHandleIRQ
                0x00000000      0x36c ./drivers/fsl_uart.o
 .text.UART_ClearStatusFlags
                0x00000000       0x3a ./drivers/fsl_uart.o
 .text.UART_WriteBlocking
                0x00000000       0x1e ./drivers/fsl_uart.o
 .text.UART_ReadBlocking
                0x00000000       0x98 ./drivers/fsl_uart.o
 .text.UART_TransferCreateHandle
                0x00000000       0x68 ./drivers/fsl_uart.o
 .text.UART_TransferStartRingBuffer
                0x00000000       0x28 ./drivers/fsl_uart.o
 .text.UART_TransferStopRingBuffer
                0x00000000       0x2e ./drivers/fsl_uart.o
 .text.UART_TransferSendNonBlocking
                0x00000000       0x2c ./drivers/fsl_uart.o
 .text.UART_TransferAbortSend
                0x00000000       0x16 ./drivers/fsl_uart.o
 .text.UART_TransferGetSendCount
                0x00000000       0x1c ./drivers/fsl_uart.o
 .text.UART_TransferReceiveNonBlocking
                0x00000000       0xe4 ./drivers/fsl_uart.o
 .text.UART_TransferAbortReceive
                0x00000000       0x2a ./drivers/fsl_uart.o
 .text.UART_TransferGetReceiveCount
                0x00000000       0x1e ./drivers/fsl_uart.o
 .text.UART_EnableTxFIFO
                0x00000000       0x46 ./drivers/fsl_uart.o
 .text.UART_EnableRxFIFO
                0x00000000       0x46 ./drivers/fsl_uart.o
 .text.UART_TransferHandleErrorIRQ
                0x00000000        0x2 ./drivers/fsl_uart.o
 .text.UART0_DriverIRQHandler
                0x00000000       0x20 ./drivers/fsl_uart.o
 .text.UART1_DriverIRQHandler
                0x00000000       0x20 ./drivers/fsl_uart.o
 .rodata.s_uartIRQ
                0x00000000        0x3 ./drivers/fsl_uart.o
 .text          0x00000000        0x0 ./drivers/fsl_vref.o
 .data          0x00000000        0x0 ./drivers/fsl_vref.o
 .bss           0x00000000        0x0 ./drivers/fsl_vref.o
 .text.VREF_Deinit
                0x00000000       0x10 ./drivers/fsl_vref.o
 .text.VREF_GetDefaultConfig
                0x00000000       0x12 ./drivers/fsl_vref.o
 .text.VREF_SetTrimVal
                0x00000000       0x16 ./drivers/fsl_vref.o
 .text          0x00000000        0x0 ./drivers/fsl_wdog.o
 .data          0x00000000        0x0 ./drivers/fsl_wdog.o
 .bss           0x00000000        0x0 ./drivers/fsl_wdog.o
 .text.WDOG_GetDefaultConfig
                0x00000000       0x28 ./drivers/fsl_wdog.o
 .text.WDOG_Init
                0x00000000       0x72 ./drivers/fsl_wdog.o
 .text.WDOG_Deinit
                0x00000000       0x30 ./drivers/fsl_wdog.o
 .text.WDOG_SetTestModeConfig
                0x00000000       0x44 ./drivers/fsl_wdog.o
 .text.WDOG_GetStatusFlags
                0x00000000       0x10 ./drivers/fsl_wdog.o
 .text.WDOG_ClearStatusFlags
                0x00000000       0x14 ./drivers/fsl_wdog.o
 .text.WDOG_Refresh
                0x00000000       0x18 ./drivers/fsl_wdog.o
 .debug_info    0x00000000      0xa2a ./drivers/fsl_wdog.o
 .debug_abbrev  0x00000000      0x2cd ./drivers/fsl_wdog.o
 .debug_loc     0x00000000      0x373 ./drivers/fsl_wdog.o
 .debug_aranges
                0x00000000       0x50 ./drivers/fsl_wdog.o
 .debug_ranges  0x00000000       0xa0 ./drivers/fsl_wdog.o
 .debug_line    0x00000000      0x610 ./drivers/fsl_wdog.o
 .debug_str     0x00000000      0x734 ./drivers/fsl_wdog.o
 .comment       0x00000000       0x7a ./drivers/fsl_wdog.o
 .debug_frame   0x00000000       0x9c ./drivers/fsl_wdog.o
 .ARM.attributes
                0x00000000       0x34 ./drivers/fsl_wdog.o
 .text          0x00000000        0x0 ./device/system_MK22F51212.o
 .data          0x00000000        0x0 ./device/system_MK22F51212.o
 .bss           0x00000000        0x0 ./device/system_MK22F51212.o
 .text          0x00000000        0x0 ./component/osa/fsl_os_abstraction_free_rtos.o
 .data          0x00000000        0x0 ./component/osa/fsl_os_abstraction_free_rtos.o
 .bss           0x00000000        0x0 ./component/osa/fsl_os_abstraction_free_rtos.o
 .text.main_task
                0x00000000        0x2 ./component/osa/fsl_os_abstraction_free_rtos.o
 .text.OSA_MemoryAllocate
                0x00000000       0x1a ./component/osa/fsl_os_abstraction_free_rtos.o
 .text.OSA_MemoryFree
                0x00000000        0x4 ./component/osa/fsl_os_abstraction_free_rtos.o
 .text.startup_task
                0x00000000        0x8 ./component/osa/fsl_os_abstraction_free_rtos.o
 .text.OSA_TimeDelay
                0x00000000       0x12 ./component/osa/fsl_os_abstraction_free_rtos.o
 .text.OSA_TimeGetMsec
                0x00000000       0x26 ./component/osa/fsl_os_abstraction_free_rtos.o
 .text.OSA_SemaphoreCreate
                0x00000000       0x18 ./component/osa/fsl_os_abstraction_free_rtos.o
 .text.OSA_SemaphoreDestroy
                0x00000000        0xc ./component/osa/fsl_os_abstraction_free_rtos.o
 .text.OSA_SemaphoreWait
                0x00000000       0x24 ./component/osa/fsl_os_abstraction_free_rtos.o
 .text.OSA_SemaphorePost
                0x00000000       0x50 ./component/osa/fsl_os_abstraction_free_rtos.o
 .text.OSA_MutexLock
                0x00000000       0x24 ./component/osa/fsl_os_abstraction_free_rtos.o
 .text.OSA_MutexUnlock
                0x00000000       0x14 ./component/osa/fsl_os_abstraction_free_rtos.o
 .text.OSA_EventCreate
                0x00000000       0x1a ./component/osa/fsl_os_abstraction_free_rtos.o
 .text.OSA_EventSet
                0x00000000       0x44 ./component/osa/fsl_os_abstraction_free_rtos.o
 .text.OSA_EventClear
                0x00000000       0x20 ./component/osa/fsl_os_abstraction_free_rtos.o
 .text.OSA_EventGet
                0x00000000       0x2a ./component/osa/fsl_os_abstraction_free_rtos.o
 .text.OSA_EventWait
                0x00000000       0x3a ./component/osa/fsl_os_abstraction_free_rtos.o
 .text.OSA_EventDestroy
                0x00000000       0x14 ./component/osa/fsl_os_abstraction_free_rtos.o
 .text.OSA_MsgQCreate
                0x00000000       0x1c ./component/osa/fsl_os_abstraction_free_rtos.o
 .text.OSA_MsgQPut
                0x00000000       0x4c ./component/osa/fsl_os_abstraction_free_rtos.o
 .text.OSA_MsgQGet
                0x00000000       0x24 ./component/osa/fsl_os_abstraction_free_rtos.o
 .text.OSA_MsgQDestroy
                0x00000000        0xc ./component/osa/fsl_os_abstraction_free_rtos.o
 .text.OSA_InterruptEnable
                0x00000000       0x2c ./component/osa/fsl_os_abstraction_free_rtos.o
 .text.OSA_InterruptDisable
                0x00000000       0x34 ./component/osa/fsl_os_abstraction_free_rtos.o
 .text.OSA_EnableIRQGlobal
                0x00000000       0x14 ./component/osa/fsl_os_abstraction_free_rtos.o
 .text.OSA_DisableIRQGlobal
                0x00000000       0x10 ./component/osa/fsl_os_abstraction_free_rtos.o
 .text.OSA_InstallIntHandler
                0x00000000        0x2 ./component/osa/fsl_os_abstraction_free_rtos.o
 .bss.s_osaState
                0x00000000        0xc ./component/osa/fsl_os_abstraction_free_rtos.o
 .rodata.gUseRtos_c
                0x00000000        0x1 ./component/osa/fsl_os_abstraction_free_rtos.o
 .text          0x00000000        0x0 ./component/lists/generic_list.o
 .data          0x00000000        0x0 ./component/lists/generic_list.o
 .bss           0x00000000        0x0 ./component/lists/generic_list.o
 .text.LIST_Error_Check
                0x00000000       0x26 ./component/lists/generic_list.o
 .text.LIST_Init
                0x00000000        0xc ./component/lists/generic_list.o
 .text.LIST_GetList
                0x00000000        0x4 ./component/lists/generic_list.o
 .text.LIST_AddTail
                0x00000000       0x32 ./component/lists/generic_list.o
 .text.LIST_AddHead
                0x00000000       0x32 ./component/lists/generic_list.o
 .text.LIST_RemoveHead
                0x00000000       0x32 ./component/lists/generic_list.o
 .text.LIST_GetHead
                0x00000000        0x4 ./component/lists/generic_list.o
 .text.LIST_GetNext
                0x00000000        0x4 ./component/lists/generic_list.o
 .text.LIST_GetPrev
                0x00000000        0x4 ./component/lists/generic_list.o
 .text.LIST_RemoveElement
                0x00000000       0x3a ./component/lists/generic_list.o
 .text.LIST_AddPrevElement
                0x00000000       0x3e ./component/lists/generic_list.o
 .text.LIST_GetSize
                0x00000000        0x4 ./component/lists/generic_list.o
 .text.LIST_GetAvailableSize
                0x00000000        0x8 ./component/lists/generic_list.o
 .debug_info    0x00000000      0x9c1 ./component/lists/generic_list.o
 .debug_abbrev  0x00000000      0x2d1 ./component/lists/generic_list.o
 .debug_loc     0x00000000      0x581 ./component/lists/generic_list.o
 .debug_aranges
                0x00000000       0x80 ./component/lists/generic_list.o
 .debug_ranges  0x00000000      0x1d8 ./component/lists/generic_list.o
 .debug_line    0x00000000      0x804 ./component/lists/generic_list.o
 .debug_str     0x00000000      0x467 ./component/lists/generic_list.o
 .comment       0x00000000       0x7a ./component/lists/generic_list.o
 .debug_frame   0x00000000      0x11c ./component/lists/generic_list.o
 .ARM.attributes
                0x00000000       0x34 ./component/lists/generic_list.o
 .text          0x00000000        0x0 ./board/board.o
 .data          0x00000000        0x0 ./board/board.o
 .bss           0x00000000        0x0 ./board/board.o
 .text.BOARD_set_DAC
                0x00000000        0xc ./board/board.o
 .text.BOARD_get_DAC
                0x00000000        0xc ./board/board.o
 .text.BOARD_InitFTM2
                0x00000000        0x4 ./board/board.o
 .text.BOARD_GetGPIOpin
                0x00000000       0x24 ./board/board.o
 .text.BOARD_GetJiffyCounter
                0x00000000        0xc ./board/board.o
 .text.BOARD_InitDebugConsole
                0x00000000        0x2 ./board/board.o
 .text          0x00000000        0x0 ./board/clock_config.o
 .data          0x00000000        0x0 ./board/clock_config.o
 .bss           0x00000000        0x0 ./board/clock_config.o
 .rodata.mcgConfig_BOARD_BootClockRUN
                0x00000000        0xb ./board/clock_config.o
 .rodata.oscConfig_BOARD_BootClockRUN
                0x00000000        0x8 ./board/clock_config.o
 .text          0x00000000        0x0 ./board/peripherals.o
 .data          0x00000000        0x0 ./board/peripherals.o
 .bss           0x00000000        0x0 ./board/peripherals.o
 .text.BOARD_InitPeripherals
                0x00000000        0x2 ./board/peripherals.o
 .text          0x00000000        0x0 ./board/pin_mux.o
 .data          0x00000000        0x0 ./board/pin_mux.o
 .bss           0x00000000        0x0 ./board/pin_mux.o
 .text.BOARD_InitPins
                0x00000000        0x2 ./board/pin_mux.o
 .text          0x00000000        0x0 c:/nxp/mcuxpressoide_11.2.1_4149/ide/plugins/com.nxp.mcuxpresso.tools.win32_11.2.0.202008311134/tools/bin/../lib/gcc/arm-none-eabi/9.2.1/../../../../arm-none-eabi/lib/thumb/v7e-m+fp/hard\libcr_semihost_nf.a(_cr__main.o)
 .data          0x00000000        0x0 c:/nxp/mcuxpressoide_11.2.1_4149/ide/plugins/com.nxp.mcuxpresso.tools.win32_11.2.0.202008311134/tools/bin/../lib/gcc/arm-none-eabi/9.2.1/../../../../arm-none-eabi/lib/thumb/v7e-m+fp/hard\libcr_semihost_nf.a(_cr__main.o)
 .bss           0x00000000        0x0 c:/nxp/mcuxpressoide_11.2.1_4149/ide/plugins/com.nxp.mcuxpresso.tools.win32_11.2.0.202008311134/tools/bin/../lib/gcc/arm-none-eabi/9.2.1/../../../../arm-none-eabi/lib/thumb/v7e-m+fp/hard\libcr_semihost_nf.a(_cr__main.o)
 .text          0x00000000        0x0 c:/nxp/mcuxpressoide_11.2.1_4149/ide/plugins/com.nxp.mcuxpresso.tools.win32_11.2.0.202008311134/tools/bin/../lib/gcc/arm-none-eabi/9.2.1/../../../../arm-none-eabi/lib/thumb/v7e-m+fp/hard\libcr_c.a(memcpy.o)
 .data          0x00000000        0x0 c:/nxp/mcuxpressoide_11.2.1_4149/ide/plugins/com.nxp.mcuxpresso.tools.win32_11.2.0.202008311134/tools/bin/../lib/gcc/arm-none-eabi/9.2.1/../../../../arm-none-eabi/lib/thumb/v7e-m+fp/hard\libcr_c.a(memcpy.o)
 .bss           0x00000000        0x0 c:/nxp/mcuxpressoide_11.2.1_4149/ide/plugins/com.nxp.mcuxpresso.tools.win32_11.2.0.202008311134/tools/bin/../lib/gcc/arm-none-eabi/9.2.1/../../../../arm-none-eabi/lib/thumb/v7e-m+fp/hard\libcr_c.a(memcpy.o)
 .text          0x00000000        0x0 c:/nxp/mcuxpressoide_11.2.1_4149/ide/plugins/com.nxp.mcuxpresso.tools.win32_11.2.0.202008311134/tools/bin/../lib/gcc/arm-none-eabi/9.2.1/../../../../arm-none-eabi/lib/thumb/v7e-m+fp/hard\libcr_c.a(memset.o)
 .data          0x00000000        0x0 c:/nxp/mcuxpressoide_11.2.1_4149/ide/plugins/com.nxp.mcuxpresso.tools.win32_11.2.0.202008311134/tools/bin/../lib/gcc/arm-none-eabi/9.2.1/../../../../arm-none-eabi/lib/thumb/v7e-m+fp/hard\libcr_c.a(memset.o)
 .bss           0x00000000        0x0 c:/nxp/mcuxpressoide_11.2.1_4149/ide/plugins/com.nxp.mcuxpresso.tools.win32_11.2.0.202008311134/tools/bin/../lib/gcc/arm-none-eabi/9.2.1/../../../../arm-none-eabi/lib/thumb/v7e-m+fp/hard\libcr_c.a(memset.o)
 .text          0x00000000        0x0 c:/nxp/mcuxpressoide_11.2.1_4149/ide/plugins/com.nxp.mcuxpresso.tools.win32_11.2.0.202008311134/tools/bin/../lib/gcc/arm-none-eabi/9.2.1/../../../../arm-none-eabi/lib/thumb/v7e-m+fp/hard\libcr_c.a(alloc.o)
 .data          0x00000000        0x0 c:/nxp/mcuxpressoide_11.2.1_4149/ide/plugins/com.nxp.mcuxpresso.tools.win32_11.2.0.202008311134/tools/bin/../lib/gcc/arm-none-eabi/9.2.1/../../../../arm-none-eabi/lib/thumb/v7e-m+fp/hard\libcr_c.a(alloc.o)
 .bss           0x00000000        0x0 c:/nxp/mcuxpressoide_11.2.1_4149/ide/plugins/com.nxp.mcuxpresso.tools.win32_11.2.0.202008311134/tools/bin/../lib/gcc/arm-none-eabi/9.2.1/../../../../arm-none-eabi/lib/thumb/v7e-m+fp/hard\libcr_c.a(alloc.o)
 .text.calloc   0x00000000       0x54 c:/nxp/mcuxpressoide_11.2.1_4149/ide/plugins/com.nxp.mcuxpresso.tools.win32_11.2.0.202008311134/tools/bin/../lib/gcc/arm-none-eabi/9.2.1/../../../../arm-none-eabi/lib/thumb/v7e-m+fp/hard\libcr_c.a(alloc.o)
 .text.realloc  0x00000000       0x26 c:/nxp/mcuxpressoide_11.2.1_4149/ide/plugins/com.nxp.mcuxpresso.tools.win32_11.2.0.202008311134/tools/bin/../lib/gcc/arm-none-eabi/9.2.1/../../../../arm-none-eabi/lib/thumb/v7e-m+fp/hard\libcr_c.a(alloc.o)
 .text          0x00000000        0x0 c:/nxp/mcuxpressoide_11.2.1_4149/ide/plugins/com.nxp.mcuxpresso.tools.win32_11.2.0.202008311134/tools/bin/../lib/gcc/arm-none-eabi/9.2.1/../../../../arm-none-eabi/lib/thumb/v7e-m+fp/hard\libcr_c.a(initio.o)
 .data          0x00000000        0x0 c:/nxp/mcuxpressoide_11.2.1_4149/ide/plugins/com.nxp.mcuxpresso.tools.win32_11.2.0.202008311134/tools/bin/../lib/gcc/arm-none-eabi/9.2.1/../../../../arm-none-eabi/lib/thumb/v7e-m+fp/hard\libcr_c.a(initio.o)
 .bss           0x00000000        0x0 c:/nxp/mcuxpressoide_11.2.1_4149/ide/plugins/com.nxp.mcuxpresso.tools.win32_11.2.0.202008311134/tools/bin/../lib/gcc/arm-none-eabi/9.2.1/../../../../arm-none-eabi/lib/thumb/v7e-m+fp/hard\libcr_c.a(initio.o)
 .text._terminateio
                0x00000000       0x50 c:/nxp/mcuxpressoide_11.2.1_4149/ide/plugins/com.nxp.mcuxpresso.tools.win32_11.2.0.202008311134/tools/bin/../lib/gcc/arm-none-eabi/9.2.1/../../../../arm-none-eabi/lib/thumb/v7e-m+fp/hard\libcr_c.a(initio.o)
 .text          0x00000000        0x0 c:/nxp/mcuxpressoide_11.2.1_4149/ide/plugins/com.nxp.mcuxpresso.tools.win32_11.2.0.202008311134/tools/bin/../lib/gcc/arm-none-eabi/9.2.1/../../../../arm-none-eabi/lib/thumb/v7e-m+fp/hard\libcr_c.a(printf.o)
 .data          0x00000000        0x0 c:/nxp/mcuxpressoide_11.2.1_4149/ide/plugins/com.nxp.mcuxpresso.tools.win32_11.2.0.202008311134/tools/bin/../lib/gcc/arm-none-eabi/9.2.1/../../../../arm-none-eabi/lib/thumb/v7e-m+fp/hard\libcr_c.a(printf.o)
 .bss           0x00000000        0x0 c:/nxp/mcuxpressoide_11.2.1_4149/ide/plugins/com.nxp.mcuxpresso.tools.win32_11.2.0.202008311134/tools/bin/../lib/gcc/arm-none-eabi/9.2.1/../../../../arm-none-eabi/lib/thumb/v7e-m+fp/hard\libcr_c.a(printf.o)
 .text._fprintf
                0x00000000       0x30 c:/nxp/mcuxpressoide_11.2.1_4149/ide/plugins/com.nxp.mcuxpresso.tools.win32_11.2.0.202008311134/tools/bin/../lib/gcc/arm-none-eabi/9.2.1/../../../../arm-none-eabi/lib/thumb/v7e-m+fp/hard\libcr_c.a(printf.o)
 .text._printf_char
                0x00000000       0x34 c:/nxp/mcuxpressoide_11.2.1_4149/ide/plugins/com.nxp.mcuxpresso.tools.win32_11.2.0.202008311134/tools/bin/../lib/gcc/arm-none-eabi/9.2.1/../../../../arm-none-eabi/lib/thumb/v7e-m+fp/hard\libcr_c.a(printf.o)
 .text._sprintf
                0x00000000       0x6c c:/nxp/mcuxpressoide_11.2.1_4149/ide/plugins/com.nxp.mcuxpresso.tools.win32_11.2.0.202008311134/tools/bin/../lib/gcc/arm-none-eabi/9.2.1/../../../../arm-none-eabi/lib/thumb/v7e-m+fp/hard\libcr_c.a(printf.o)
 .text._snprintf
                0x00000000       0x78 c:/nxp/mcuxpressoide_11.2.1_4149/ide/plugins/com.nxp.mcuxpresso.tools.win32_11.2.0.202008311134/tools/bin/../lib/gcc/arm-none-eabi/9.2.1/../../../../arm-none-eabi/lib/thumb/v7e-m+fp/hard\libcr_c.a(printf.o)
 .text._vfprintf
                0x00000000       0x20 c:/nxp/mcuxpressoide_11.2.1_4149/ide/plugins/com.nxp.mcuxpresso.tools.win32_11.2.0.202008311134/tools/bin/../lib/gcc/arm-none-eabi/9.2.1/../../../../arm-none-eabi/lib/thumb/v7e-m+fp/hard\libcr_c.a(printf.o)
 .text._vprintf
                0x00000000       0x28 c:/nxp/mcuxpressoide_11.2.1_4149/ide/plugins/com.nxp.mcuxpresso.tools.win32_11.2.0.202008311134/tools/bin/../lib/gcc/arm-none-eabi/9.2.1/../../../../arm-none-eabi/lib/thumb/v7e-m+fp/hard\libcr_c.a(printf.o)
 .text._vsprintf
                0x00000000       0x5c c:/nxp/mcuxpressoide_11.2.1_4149/ide/plugins/com.nxp.mcuxpresso.tools.win32_11.2.0.202008311134/tools/bin/../lib/gcc/arm-none-eabi/9.2.1/../../../../arm-none-eabi/lib/thumb/v7e-m+fp/hard\libcr_c.a(printf.o)
 .text          0x00000000        0x0 c:/nxp/mcuxpressoide_11.2.1_4149/ide/plugins/com.nxp.mcuxpresso.tools.win32_11.2.0.202008311134/tools/bin/../lib/gcc/arm-none-eabi/9.2.1/../../../../arm-none-eabi/lib/thumb/v7e-m+fp/hard\libcr_c.a(setvbuf.o)
 .data          0x00000000        0x0 c:/nxp/mcuxpressoide_11.2.1_4149/ide/plugins/com.nxp.mcuxpresso.tools.win32_11.2.0.202008311134/tools/bin/../lib/gcc/arm-none-eabi/9.2.1/../../../../arm-none-eabi/lib/thumb/v7e-m+fp/hard\libcr_c.a(setvbuf.o)
 .bss           0x00000000        0x0 c:/nxp/mcuxpressoide_11.2.1_4149/ide/plugins/com.nxp.mcuxpresso.tools.win32_11.2.0.202008311134/tools/bin/../lib/gcc/arm-none-eabi/9.2.1/../../../../arm-none-eabi/lib/thumb/v7e-m+fp/hard\libcr_c.a(setvbuf.o)
 .text          0x00000000        0x0 c:/nxp/mcuxpressoide_11.2.1_4149/ide/plugins/com.nxp.mcuxpresso.tools.win32_11.2.0.202008311134/tools/bin/../lib/gcc/arm-none-eabi/9.2.1/../../../../arm-none-eabi/lib/thumb/v7e-m+fp/hard\libcr_c.a(strcpy.o)
 .data          0x00000000        0x0 c:/nxp/mcuxpressoide_11.2.1_4149/ide/plugins/com.nxp.mcuxpresso.tools.win32_11.2.0.202008311134/tools/bin/../lib/gcc/arm-none-eabi/9.2.1/../../../../arm-none-eabi/lib/thumb/v7e-m+fp/hard\libcr_c.a(strcpy.o)
 .bss           0x00000000        0x0 c:/nxp/mcuxpressoide_11.2.1_4149/ide/plugins/com.nxp.mcuxpresso.tools.win32_11.2.0.202008311134/tools/bin/../lib/gcc/arm-none-eabi/9.2.1/../../../../arm-none-eabi/lib/thumb/v7e-m+fp/hard\libcr_c.a(strcpy.o)
 .text          0x00000000        0x0 c:/nxp/mcuxpressoide_11.2.1_4149/ide/plugins/com.nxp.mcuxpresso.tools.win32_11.2.0.202008311134/tools/bin/../lib/gcc/arm-none-eabi/9.2.1/../../../../arm-none-eabi/lib/thumb/v7e-m+fp/hard\libcr_c.a(strlen.o)
 .data          0x00000000        0x0 c:/nxp/mcuxpressoide_11.2.1_4149/ide/plugins/com.nxp.mcuxpresso.tools.win32_11.2.0.202008311134/tools/bin/../lib/gcc/arm-none-eabi/9.2.1/../../../../arm-none-eabi/lib/thumb/v7e-m+fp/hard\libcr_c.a(strlen.o)
 .bss           0x00000000        0x0 c:/nxp/mcuxpressoide_11.2.1_4149/ide/plugins/com.nxp.mcuxpresso.tools.win32_11.2.0.202008311134/tools/bin/../lib/gcc/arm-none-eabi/9.2.1/../../../../arm-none-eabi/lib/thumb/v7e-m+fp/hard\libcr_c.a(strlen.o)
 .text          0x00000000        0x0 c:/nxp/mcuxpressoide_11.2.1_4149/ide/plugins/com.nxp.mcuxpresso.tools.win32_11.2.0.202008311134/tools/bin/../lib/gcc/arm-none-eabi/9.2.1/../../../../arm-none-eabi/lib/thumb/v7e-m+fp/hard\libcr_c.a(__init_alloc.o)
 .data          0x00000000        0x0 c:/nxp/mcuxpressoide_11.2.1_4149/ide/plugins/com.nxp.mcuxpresso.tools.win32_11.2.0.202008311134/tools/bin/../lib/gcc/arm-none-eabi/9.2.1/../../../../arm-none-eabi/lib/thumb/v7e-m+fp/hard\libcr_c.a(__init_alloc.o)
 .bss           0x00000000        0x0 c:/nxp/mcuxpressoide_11.2.1_4149/ide/plugins/com.nxp.mcuxpresso.tools.win32_11.2.0.202008311134/tools/bin/../lib/gcc/arm-none-eabi/9.2.1/../../../../arm-none-eabi/lib/thumb/v7e-m+fp/hard\libcr_c.a(__init_alloc.o)
 .text._init_alloc
                0x00000000       0x14 c:/nxp/mcuxpressoide_11.2.1_4149/ide/plugins/com.nxp.mcuxpresso.tools.win32_11.2.0.202008311134/tools/bin/../lib/gcc/arm-none-eabi/9.2.1/../../../../arm-none-eabi/lib/thumb/v7e-m+fp/hard\libcr_c.a(__init_alloc.o)
 .text          0x00000000        0x0 c:/nxp/mcuxpressoide_11.2.1_4149/ide/plugins/com.nxp.mcuxpresso.tools.win32_11.2.0.202008311134/tools/bin/../lib/gcc/arm-none-eabi/9.2.1/../../../../arm-none-eabi/lib/thumb/v7e-m+fp/hard\libcr_c.a(_cr_sbrk.o)
 .data          0x00000000        0x0 c:/nxp/mcuxpressoide_11.2.1_4149/ide/plugins/com.nxp.mcuxpresso.tools.win32_11.2.0.202008311134/tools/bin/../lib/gcc/arm-none-eabi/9.2.1/../../../../arm-none-eabi/lib/thumb/v7e-m+fp/hard\libcr_c.a(_cr_sbrk.o)
 .bss           0x00000000        0x0 c:/nxp/mcuxpressoide_11.2.1_4149/ide/plugins/com.nxp.mcuxpresso.tools.win32_11.2.0.202008311134/tools/bin/../lib/gcc/arm-none-eabi/9.2.1/../../../../arm-none-eabi/lib/thumb/v7e-m+fp/hard\libcr_c.a(_cr_sbrk.o)
 .text          0x00000000        0x0 c:/nxp/mcuxpressoide_11.2.1_4149/ide/plugins/com.nxp.mcuxpresso.tools.win32_11.2.0.202008311134/tools/bin/../lib/gcc/arm-none-eabi/9.2.1/../../../../arm-none-eabi/lib/thumb/v7e-m+fp/hard\libcr_c.a(_deferredlazyseek.o)
 .data          0x00000000        0x0 c:/nxp/mcuxpressoide_11.2.1_4149/ide/plugins/com.nxp.mcuxpresso.tools.win32_11.2.0.202008311134/tools/bin/../lib/gcc/arm-none-eabi/9.2.1/../../../../arm-none-eabi/lib/thumb/v7e-m+fp/hard\libcr_c.a(_deferredlazyseek.o)
 .bss           0x00000000        0x0 c:/nxp/mcuxpressoide_11.2.1_4149/ide/plugins/com.nxp.mcuxpresso.tools.win32_11.2.0.202008311134/tools/bin/../lib/gcc/arm-none-eabi/9.2.1/../../../../arm-none-eabi/lib/thumb/v7e-m+fp/hard\libcr_c.a(_deferredlazyseek.o)
 .text          0x00000000        0x0 c:/nxp/mcuxpressoide_11.2.1_4149/ide/plugins/com.nxp.mcuxpresso.tools.win32_11.2.0.202008311134/tools/bin/../lib/gcc/arm-none-eabi/9.2.1/../../../../arm-none-eabi/lib/thumb/v7e-m+fp/hard\libcr_c.a(_fdopen.o)
 .data          0x00000000        0x0 c:/nxp/mcuxpressoide_11.2.1_4149/ide/plugins/com.nxp.mcuxpresso.tools.win32_11.2.0.202008311134/tools/bin/../lib/gcc/arm-none-eabi/9.2.1/../../../../arm-none-eabi/lib/thumb/v7e-m+fp/hard\libcr_c.a(_fdopen.o)
 .bss           0x00000000        0x0 c:/nxp/mcuxpressoide_11.2.1_4149/ide/plugins/com.nxp.mcuxpresso.tools.win32_11.2.0.202008311134/tools/bin/../lib/gcc/arm-none-eabi/9.2.1/../../../../arm-none-eabi/lib/thumb/v7e-m+fp/hard\libcr_c.a(_fdopen.o)
 .text          0x00000000        0x0 c:/nxp/mcuxpressoide_11.2.1_4149/ide/plugins/com.nxp.mcuxpresso.tools.win32_11.2.0.202008311134/tools/bin/../lib/gcc/arm-none-eabi/9.2.1/../../../../arm-none-eabi/lib/thumb/v7e-m+fp/hard\libcr_c.a(_fflush.o)
 .data          0x00000000        0x0 c:/nxp/mcuxpressoide_11.2.1_4149/ide/plugins/com.nxp.mcuxpresso.tools.win32_11.2.0.202008311134/tools/bin/../lib/gcc/arm-none-eabi/9.2.1/../../../../arm-none-eabi/lib/thumb/v7e-m+fp/hard\libcr_c.a(_fflush.o)
 .bss           0x00000000        0x0 c:/nxp/mcuxpressoide_11.2.1_4149/ide/plugins/com.nxp.mcuxpresso.tools.win32_11.2.0.202008311134/tools/bin/../lib/gcc/arm-none-eabi/9.2.1/../../../../arm-none-eabi/lib/thumb/v7e-m+fp/hard\libcr_c.a(_fflush.o)
 .text          0x00000000        0x0 c:/nxp/mcuxpressoide_11.2.1_4149/ide/plugins/com.nxp.mcuxpresso.tools.win32_11.2.0.202008311134/tools/bin/../lib/gcc/arm-none-eabi/9.2.1/../../../../arm-none-eabi/lib/thumb/v7e-m+fp/hard\libcr_c.a(_writebuf.o)
 .data          0x00000000        0x0 c:/nxp/mcuxpressoide_11.2.1_4149/ide/plugins/com.nxp.mcuxpresso.tools.win32_11.2.0.202008311134/tools/bin/../lib/gcc/arm-none-eabi/9.2.1/../../../../arm-none-eabi/lib/thumb/v7e-m+fp/hard\libcr_c.a(_writebuf.o)
 .bss           0x00000000        0x0 c:/nxp/mcuxpressoide_11.2.1_4149/ide/plugins/com.nxp.mcuxpresso.tools.win32_11.2.0.202008311134/tools/bin/../lib/gcc/arm-none-eabi/9.2.1/../../../../arm-none-eabi/lib/thumb/v7e-m+fp/hard\libcr_c.a(_writebuf.o)
 .text          0x00000000        0x0 c:/nxp/mcuxpressoide_11.2.1_4149/ide/plugins/com.nxp.mcuxpresso.tools.win32_11.2.0.202008311134/tools/bin/../lib/gcc/arm-none-eabi/9.2.1/../../../../arm-none-eabi/lib/thumb/v7e-m+fp/hard\libcr_c.a(errno.o)
 .data          0x00000000        0x0 c:/nxp/mcuxpressoide_11.2.1_4149/ide/plugins/com.nxp.mcuxpresso.tools.win32_11.2.0.202008311134/tools/bin/../lib/gcc/arm-none-eabi/9.2.1/../../../../arm-none-eabi/lib/thumb/v7e-m+fp/hard\libcr_c.a(errno.o)
 .bss           0x00000000        0x0 c:/nxp/mcuxpressoide_11.2.1_4149/ide/plugins/com.nxp.mcuxpresso.tools.win32_11.2.0.202008311134/tools/bin/../lib/gcc/arm-none-eabi/9.2.1/../../../../arm-none-eabi/lib/thumb/v7e-m+fp/hard\libcr_c.a(errno.o)
 .text          0x00000000        0x0 c:/nxp/mcuxpressoide_11.2.1_4149/ide/plugins/com.nxp.mcuxpresso.tools.win32_11.2.0.202008311134/tools/bin/../lib/gcc/arm-none-eabi/9.2.1/../../../../arm-none-eabi/lib/thumb/v7e-m+fp/hard\libcr_c.a(fclose.o)
 .data          0x00000000        0x0 c:/nxp/mcuxpressoide_11.2.1_4149/ide/plugins/com.nxp.mcuxpresso.tools.win32_11.2.0.202008311134/tools/bin/../lib/gcc/arm-none-eabi/9.2.1/../../../../arm-none-eabi/lib/thumb/v7e-m+fp/hard\libcr_c.a(fclose.o)
 .bss           0x00000000        0x0 c:/nxp/mcuxpressoide_11.2.1_4149/ide/plugins/com.nxp.mcuxpresso.tools.win32_11.2.0.202008311134/tools/bin/../lib/gcc/arm-none-eabi/9.2.1/../../../../arm-none-eabi/lib/thumb/v7e-m+fp/hard\libcr_c.a(fclose.o)
 .text          0x00000000        0x0 c:/nxp/mcuxpressoide_11.2.1_4149/ide/plugins/com.nxp.mcuxpresso.tools.win32_11.2.0.202008311134/tools/bin/../lib/gcc/arm-none-eabi/9.2.1/../../../../arm-none-eabi/lib/thumb/v7e-m+fp/hard\libcr_c.a(fflush.o)
 .data          0x00000000        0x0 c:/nxp/mcuxpressoide_11.2.1_4149/ide/plugins/com.nxp.mcuxpresso.tools.win32_11.2.0.202008311134/tools/bin/../lib/gcc/arm-none-eabi/9.2.1/../../../../arm-none-eabi/lib/thumb/v7e-m+fp/hard\libcr_c.a(fflush.o)
 .bss           0x00000000        0x0 c:/nxp/mcuxpressoide_11.2.1_4149/ide/plugins/com.nxp.mcuxpresso.tools.win32_11.2.0.202008311134/tools/bin/../lib/gcc/arm-none-eabi/9.2.1/../../../../arm-none-eabi/lib/thumb/v7e-m+fp/hard\libcr_c.a(fflush.o)
 .text          0x00000000        0x0 c:/nxp/mcuxpressoide_11.2.1_4149/ide/plugins/com.nxp.mcuxpresso.tools.win32_11.2.0.202008311134/tools/bin/../lib/gcc/arm-none-eabi/9.2.1/../../../../arm-none-eabi/lib/thumb/v7e-m+fp/hard\libcr_c.a(fseek.o)
 .data          0x00000000        0x0 c:/nxp/mcuxpressoide_11.2.1_4149/ide/plugins/com.nxp.mcuxpresso.tools.win32_11.2.0.202008311134/tools/bin/../lib/gcc/arm-none-eabi/9.2.1/../../../../arm-none-eabi/lib/thumb/v7e-m+fp/hard\libcr_c.a(fseek.o)
 .bss           0x00000000        0x0 c:/nxp/mcuxpressoide_11.2.1_4149/ide/plugins/com.nxp.mcuxpresso.tools.win32_11.2.0.202008311134/tools/bin/../lib/gcc/arm-none-eabi/9.2.1/../../../../arm-none-eabi/lib/thumb/v7e-m+fp/hard\libcr_c.a(fseek.o)
 .text          0x00000000        0x0 c:/nxp/mcuxpressoide_11.2.1_4149/ide/plugins/com.nxp.mcuxpresso.tools.win32_11.2.0.202008311134/tools/bin/../lib/gcc/arm-none-eabi/9.2.1/../../../../arm-none-eabi/lib/thumb/v7e-m+fp/hard\libcr_c.a(ftell.o)
 .data          0x00000000        0x0 c:/nxp/mcuxpressoide_11.2.1_4149/ide/plugins/com.nxp.mcuxpresso.tools.win32_11.2.0.202008311134/tools/bin/../lib/gcc/arm-none-eabi/9.2.1/../../../../arm-none-eabi/lib/thumb/v7e-m+fp/hard\libcr_c.a(ftell.o)
 .bss           0x00000000        0x0 c:/nxp/mcuxpressoide_11.2.1_4149/ide/plugins/com.nxp.mcuxpresso.tools.win32_11.2.0.202008311134/tools/bin/../lib/gcc/arm-none-eabi/9.2.1/../../../../arm-none-eabi/lib/thumb/v7e-m+fp/hard\libcr_c.a(ftell.o)
 .text          0x00000000        0x0 c:/nxp/mcuxpressoide_11.2.1_4149/ide/plugins/com.nxp.mcuxpresso.tools.win32_11.2.0.202008311134/tools/bin/../lib/gcc/arm-none-eabi/9.2.1/../../../../arm-none-eabi/lib/thumb/v7e-m+fp/hard\libcr_c.a(remove.o)
 .data          0x00000000        0x0 c:/nxp/mcuxpressoide_11.2.1_4149/ide/plugins/com.nxp.mcuxpresso.tools.win32_11.2.0.202008311134/tools/bin/../lib/gcc/arm-none-eabi/9.2.1/../../../../arm-none-eabi/lib/thumb/v7e-m+fp/hard\libcr_c.a(remove.o)
 .bss           0x00000000        0x0 c:/nxp/mcuxpressoide_11.2.1_4149/ide/plugins/com.nxp.mcuxpresso.tools.win32_11.2.0.202008311134/tools/bin/../lib/gcc/arm-none-eabi/9.2.1/../../../../arm-none-eabi/lib/thumb/v7e-m+fp/hard\libcr_c.a(remove.o)
 .text.rename   0x00000000       0x2a c:/nxp/mcuxpressoide_11.2.1_4149/ide/plugins/com.nxp.mcuxpresso.tools.win32_11.2.0.202008311134/tools/bin/../lib/gcc/arm-none-eabi/9.2.1/../../../../arm-none-eabi/lib/thumb/v7e-m+fp/hard\libcr_c.a(remove.o)
 .text          0x00000000        0x0 c:/nxp/mcuxpressoide_11.2.1_4149/ide/plugins/com.nxp.mcuxpresso.tools.win32_11.2.0.202008311134/tools/bin/../lib/gcc/arm-none-eabi/9.2.1/../../../../arm-none-eabi/lib/thumb/v7e-m+fp/hard\libcr_c.a(_cr_check_heap.o)
 .data          0x00000000        0x0 c:/nxp/mcuxpressoide_11.2.1_4149/ide/plugins/com.nxp.mcuxpresso.tools.win32_11.2.0.202008311134/tools/bin/../lib/gcc/arm-none-eabi/9.2.1/../../../../arm-none-eabi/lib/thumb/v7e-m+fp/hard\libcr_c.a(_cr_check_heap.o)
 .bss           0x00000000        0x0 c:/nxp/mcuxpressoide_11.2.1_4149/ide/plugins/com.nxp.mcuxpresso.tools.win32_11.2.0.202008311134/tools/bin/../lib/gcc/arm-none-eabi/9.2.1/../../../../arm-none-eabi/lib/thumb/v7e-m+fp/hard\libcr_c.a(_cr_check_heap.o)
 .text          0x00000000        0x0 c:/nxp/mcuxpressoide_11.2.1_4149/ide/plugins/com.nxp.mcuxpresso.tools.win32_11.2.0.202008311134/tools/bin/../lib/gcc/arm-none-eabi/9.2.1/../../../../arm-none-eabi/lib/thumb/v7e-m+fp/hard\libcr_c.a(_do_fflush.o)
 .data          0x00000000        0x0 c:/nxp/mcuxpressoide_11.2.1_4149/ide/plugins/com.nxp.mcuxpresso.tools.win32_11.2.0.202008311134/tools/bin/../lib/gcc/arm-none-eabi/9.2.1/../../../../arm-none-eabi/lib/thumb/v7e-m+fp/hard\libcr_c.a(_do_fflush.o)
 .bss           0x00000000        0x0 c:/nxp/mcuxpressoide_11.2.1_4149/ide/plugins/com.nxp.mcuxpresso.tools.win32_11.2.0.202008311134/tools/bin/../lib/gcc/arm-none-eabi/9.2.1/../../../../arm-none-eabi/lib/thumb/v7e-m+fp/hard\libcr_c.a(_do_fflush.o)
 .text          0x00000000        0x0 c:/nxp/mcuxpressoide_11.2.1_4149/ide/plugins/com.nxp.mcuxpresso.tools.win32_11.2.0.202008311134/tools/bin/../lib/gcc/arm-none-eabi/9.2.1/thumb/v7e-m+fp/hard\libcr_eabihelpers.a(division_64.o)
 .data          0x00000000        0x0 c:/nxp/mcuxpressoide_11.2.1_4149/ide/plugins/com.nxp.mcuxpresso.tools.win32_11.2.0.202008311134/tools/bin/../lib/gcc/arm-none-eabi/9.2.1/thumb/v7e-m+fp/hard\libcr_eabihelpers.a(division_64.o)
 .bss           0x00000000        0x0 c:/nxp/mcuxpressoide_11.2.1_4149/ide/plugins/com.nxp.mcuxpresso.tools.win32_11.2.0.202008311134/tools/bin/../lib/gcc/arm-none-eabi/9.2.1/thumb/v7e-m+fp/hard\libcr_eabihelpers.a(division_64.o)
 .text.__aeabi_division_ldivmod
                0x00000000       0x26 c:/nxp/mcuxpressoide_11.2.1_4149/ide/plugins/com.nxp.mcuxpresso.tools.win32_11.2.0.202008311134/tools/bin/../lib/gcc/arm-none-eabi/9.2.1/thumb/v7e-m+fp/hard\libcr_eabihelpers.a(division_64.o)
 .text          0x00000000        0x0 c:/nxp/mcuxpressoide_11.2.1_4149/ide/plugins/com.nxp.mcuxpresso.tools.win32_11.2.0.202008311134/tools/bin/../lib/gcc/arm-none-eabi/9.2.1/thumb/v7e-m+fp/hard\libcr_eabihelpers.a(division_idiv0.o)
 .data          0x00000000        0x0 c:/nxp/mcuxpressoide_11.2.1_4149/ide/plugins/com.nxp.mcuxpresso.tools.win32_11.2.0.202008311134/tools/bin/../lib/gcc/arm-none-eabi/9.2.1/thumb/v7e-m+fp/hard\libcr_eabihelpers.a(division_idiv0.o)
 .bss           0x00000000        0x0 c:/nxp/mcuxpressoide_11.2.1_4149/ide/plugins/com.nxp.mcuxpresso.tools.win32_11.2.0.202008311134/tools/bin/../lib/gcc/arm-none-eabi/9.2.1/thumb/v7e-m+fp/hard\libcr_eabihelpers.a(division_idiv0.o)
 .text          0x00000000        0x0 c:/nxp/mcuxpressoide_11.2.1_4149/ide/plugins/com.nxp.mcuxpresso.tools.win32_11.2.0.202008311134/tools/bin/../lib/gcc/arm-none-eabi/9.2.1/thumb/v7e-m+fp/hard\libcr_eabihelpers.a(double.o)
 .data          0x00000000        0x0 c:/nxp/mcuxpressoide_11.2.1_4149/ide/plugins/com.nxp.mcuxpresso.tools.win32_11.2.0.202008311134/tools/bin/../lib/gcc/arm-none-eabi/9.2.1/thumb/v7e-m+fp/hard\libcr_eabihelpers.a(double.o)
 .bss           0x00000000        0x0 c:/nxp/mcuxpressoide_11.2.1_4149/ide/plugins/com.nxp.mcuxpresso.tools.win32_11.2.0.202008311134/tools/bin/../lib/gcc/arm-none-eabi/9.2.1/thumb/v7e-m+fp/hard\libcr_eabihelpers.a(double.o)
 .text.__aeabi_dmul
                0x00000000      0x114 c:/nxp/mcuxpressoide_11.2.1_4149/ide/plugins/com.nxp.mcuxpresso.tools.win32_11.2.0.202008311134/tools/bin/../lib/gcc/arm-none-eabi/9.2.1/thumb/v7e-m+fp/hard\libcr_eabihelpers.a(double.o)
 .text.__aeabi_ddiv
                0x00000000      0x144 c:/nxp/mcuxpressoide_11.2.1_4149/ide/plugins/com.nxp.mcuxpresso.tools.win32_11.2.0.202008311134/tools/bin/../lib/gcc/arm-none-eabi/9.2.1/thumb/v7e-m+fp/hard\libcr_eabihelpers.a(double.o)
 .text.__aeabi_drsub
                0x00000000       0x18 c:/nxp/mcuxpressoide_11.2.1_4149/ide/plugins/com.nxp.mcuxpresso.tools.win32_11.2.0.202008311134/tools/bin/../lib/gcc/arm-none-eabi/9.2.1/thumb/v7e-m+fp/hard\libcr_eabihelpers.a(double.o)
 .text.__aeabi_dneg
                0x00000000        0xa c:/nxp/mcuxpressoide_11.2.1_4149/ide/plugins/com.nxp.mcuxpresso.tools.win32_11.2.0.202008311134/tools/bin/../lib/gcc/arm-none-eabi/9.2.1/thumb/v7e-m+fp/hard\libcr_eabihelpers.a(double.o)
 .text.__aeabi_d2f
                0x00000000       0x58 c:/nxp/mcuxpressoide_11.2.1_4149/ide/plugins/com.nxp.mcuxpresso.tools.win32_11.2.0.202008311134/tools/bin/../lib/gcc/arm-none-eabi/9.2.1/thumb/v7e-m+fp/hard\libcr_eabihelpers.a(double.o)
 .text.__aeabi_d2uiz
                0x00000000       0x30 c:/nxp/mcuxpressoide_11.2.1_4149/ide/plugins/com.nxp.mcuxpresso.tools.win32_11.2.0.202008311134/tools/bin/../lib/gcc/arm-none-eabi/9.2.1/thumb/v7e-m+fp/hard\libcr_eabihelpers.a(double.o)
 .text.__aeabi_d2lz
                0x00000000       0x72 c:/nxp/mcuxpressoide_11.2.1_4149/ide/plugins/com.nxp.mcuxpresso.tools.win32_11.2.0.202008311134/tools/bin/../lib/gcc/arm-none-eabi/9.2.1/thumb/v7e-m+fp/hard\libcr_eabihelpers.a(double.o)
 .text.__aeabi_d2ulz
                0x00000000       0x56 c:/nxp/mcuxpressoide_11.2.1_4149/ide/plugins/com.nxp.mcuxpresso.tools.win32_11.2.0.202008311134/tools/bin/../lib/gcc/arm-none-eabi/9.2.1/thumb/v7e-m+fp/hard\libcr_eabihelpers.a(double.o)
 .text.__bhs_ui2d
                0x00000000       0x46 c:/nxp/mcuxpressoide_11.2.1_4149/ide/plugins/com.nxp.mcuxpresso.tools.win32_11.2.0.202008311134/tools/bin/../lib/gcc/arm-none-eabi/9.2.1/thumb/v7e-m+fp/hard\libcr_eabihelpers.a(double.o)
 .text.__bhs_ul2d
                0x00000000       0x8a c:/nxp/mcuxpressoide_11.2.1_4149/ide/plugins/com.nxp.mcuxpresso.tools.win32_11.2.0.202008311134/tools/bin/../lib/gcc/arm-none-eabi/9.2.1/thumb/v7e-m+fp/hard\libcr_eabihelpers.a(double.o)
 .text.__aeabi_i2d
                0x00000000       0x12 c:/nxp/mcuxpressoide_11.2.1_4149/ide/plugins/com.nxp.mcuxpresso.tools.win32_11.2.0.202008311134/tools/bin/../lib/gcc/arm-none-eabi/9.2.1/thumb/v7e-m+fp/hard\libcr_eabihelpers.a(double.o)
 .text.__aeabi_ui2d
                0x00000000        0x8 c:/nxp/mcuxpressoide_11.2.1_4149/ide/plugins/com.nxp.mcuxpresso.tools.win32_11.2.0.202008311134/tools/bin/../lib/gcc/arm-none-eabi/9.2.1/thumb/v7e-m+fp/hard\libcr_eabihelpers.a(double.o)
 .text.__aeabi_l2d
                0x00000000       0x1c c:/nxp/mcuxpressoide_11.2.1_4149/ide/plugins/com.nxp.mcuxpresso.tools.win32_11.2.0.202008311134/tools/bin/../lib/gcc/arm-none-eabi/9.2.1/thumb/v7e-m+fp/hard\libcr_eabihelpers.a(double.o)
 .text.__aeabi_ul2d
                0x00000000        0x8 c:/nxp/mcuxpressoide_11.2.1_4149/ide/plugins/com.nxp.mcuxpresso.tools.win32_11.2.0.202008311134/tools/bin/../lib/gcc/arm-none-eabi/9.2.1/thumb/v7e-m+fp/hard\libcr_eabihelpers.a(double.o)
 .text.__aeabi_dcmpeq
                0x00000000       0x30 c:/nxp/mcuxpressoide_11.2.1_4149/ide/plugins/com.nxp.mcuxpresso.tools.win32_11.2.0.202008311134/tools/bin/../lib/gcc/arm-none-eabi/9.2.1/thumb/v7e-m+fp/hard\libcr_eabihelpers.a(double.o)
 .text.__aeabi_dcmplt
                0x00000000       0x56 c:/nxp/mcuxpressoide_11.2.1_4149/ide/plugins/com.nxp.mcuxpresso.tools.win32_11.2.0.202008311134/tools/bin/../lib/gcc/arm-none-eabi/9.2.1/thumb/v7e-m+fp/hard\libcr_eabihelpers.a(double.o)
 .text.__aeabi_dcmpgt
                0x00000000       0x56 c:/nxp/mcuxpressoide_11.2.1_4149/ide/plugins/com.nxp.mcuxpresso.tools.win32_11.2.0.202008311134/tools/bin/../lib/gcc/arm-none-eabi/9.2.1/thumb/v7e-m+fp/hard\libcr_eabihelpers.a(double.o)
 .text.__aeabi_dcmple
                0x00000000       0x56 c:/nxp/mcuxpressoide_11.2.1_4149/ide/plugins/com.nxp.mcuxpresso.tools.win32_11.2.0.202008311134/tools/bin/../lib/gcc/arm-none-eabi/9.2.1/thumb/v7e-m+fp/hard\libcr_eabihelpers.a(double.o)
 .text.__aeabi_dcmpge
                0x00000000       0x5c c:/nxp/mcuxpressoide_11.2.1_4149/ide/plugins/com.nxp.mcuxpresso.tools.win32_11.2.0.202008311134/tools/bin/../lib/gcc/arm-none-eabi/9.2.1/thumb/v7e-m+fp/hard\libcr_eabihelpers.a(double.o)
 .text.__aeabi_dcmpun
                0x00000000       0x1a c:/nxp/mcuxpressoide_11.2.1_4149/ide/plugins/com.nxp.mcuxpresso.tools.win32_11.2.0.202008311134/tools/bin/../lib/gcc/arm-none-eabi/9.2.1/thumb/v7e-m+fp/hard\libcr_eabihelpers.a(double.o)
 .text.__aeabi_cdcmple
                0x00000000       0x2c c:/nxp/mcuxpressoide_11.2.1_4149/ide/plugins/com.nxp.mcuxpresso.tools.win32_11.2.0.202008311134/tools/bin/../lib/gcc/arm-none-eabi/9.2.1/thumb/v7e-m+fp/hard\libcr_eabihelpers.a(double.o)
 .text.__aeabi_cdrcmple
                0x00000000       0x14 c:/nxp/mcuxpressoide_11.2.1_4149/ide/plugins/com.nxp.mcuxpresso.tools.win32_11.2.0.202008311134/tools/bin/../lib/gcc/arm-none-eabi/9.2.1/thumb/v7e-m+fp/hard\libcr_eabihelpers.a(double.o)
 .text          0x00000000        0x0 c:/nxp/mcuxpressoide_11.2.1_4149/ide/plugins/com.nxp.mcuxpresso.tools.win32_11.2.0.202008311134/tools/bin/../lib/gcc/arm-none-eabi/9.2.1/thumb/v7e-m+fp/hard\libcr_eabihelpers.a(float.o)
 .data          0x00000000        0x0 c:/nxp/mcuxpressoide_11.2.1_4149/ide/plugins/com.nxp.mcuxpresso.tools.win32_11.2.0.202008311134/tools/bin/../lib/gcc/arm-none-eabi/9.2.1/thumb/v7e-m+fp/hard\libcr_eabihelpers.a(float.o)
 .bss           0x00000000        0x0 c:/nxp/mcuxpressoide_11.2.1_4149/ide/plugins/com.nxp.mcuxpresso.tools.win32_11.2.0.202008311134/tools/bin/../lib/gcc/arm-none-eabi/9.2.1/thumb/v7e-m+fp/hard\libcr_eabihelpers.a(float.o)
 .text.__aeabi_fmul
                0x00000000       0xb0 c:/nxp/mcuxpressoide_11.2.1_4149/ide/plugins/com.nxp.mcuxpresso.tools.win32_11.2.0.202008311134/tools/bin/../lib/gcc/arm-none-eabi/9.2.1/thumb/v7e-m+fp/hard\libcr_eabihelpers.a(float.o)
 .text.__aeabi_fdiv
                0x00000000       0xc8 c:/nxp/mcuxpressoide_11.2.1_4149/ide/plugins/com.nxp.mcuxpresso.tools.win32_11.2.0.202008311134/tools/bin/../lib/gcc/arm-none-eabi/9.2.1/thumb/v7e-m+fp/hard\libcr_eabihelpers.a(float.o)
 .text.__aeabi_fsub
                0x00000000       0xf8 c:/nxp/mcuxpressoide_11.2.1_4149/ide/plugins/com.nxp.mcuxpresso.tools.win32_11.2.0.202008311134/tools/bin/../lib/gcc/arm-none-eabi/9.2.1/thumb/v7e-m+fp/hard\libcr_eabihelpers.a(float.o)
 .text.__aeabi_fadd
                0x00000000       0xc0 c:/nxp/mcuxpressoide_11.2.1_4149/ide/plugins/com.nxp.mcuxpresso.tools.win32_11.2.0.202008311134/tools/bin/../lib/gcc/arm-none-eabi/9.2.1/thumb/v7e-m+fp/hard\libcr_eabihelpers.a(float.o)
 .text.__aeabi_frsub
                0x00000000        0xc c:/nxp/mcuxpressoide_11.2.1_4149/ide/plugins/com.nxp.mcuxpresso.tools.win32_11.2.0.202008311134/tools/bin/../lib/gcc/arm-none-eabi/9.2.1/thumb/v7e-m+fp/hard\libcr_eabihelpers.a(float.o)
 .text.__aeabi_fneg
                0x00000000        0x6 c:/nxp/mcuxpressoide_11.2.1_4149/ide/plugins/com.nxp.mcuxpresso.tools.win32_11.2.0.202008311134/tools/bin/../lib/gcc/arm-none-eabi/9.2.1/thumb/v7e-m+fp/hard\libcr_eabihelpers.a(float.o)
 .text.__aeabi_f2iz
                0x00000000       0x36 c:/nxp/mcuxpressoide_11.2.1_4149/ide/plugins/com.nxp.mcuxpresso.tools.win32_11.2.0.202008311134/tools/bin/../lib/gcc/arm-none-eabi/9.2.1/thumb/v7e-m+fp/hard\libcr_eabihelpers.a(float.o)
 .text.__aeabi_f2uiz
                0x00000000       0x28 c:/nxp/mcuxpressoide_11.2.1_4149/ide/plugins/com.nxp.mcuxpresso.tools.win32_11.2.0.202008311134/tools/bin/../lib/gcc/arm-none-eabi/9.2.1/thumb/v7e-m+fp/hard\libcr_eabihelpers.a(float.o)
 .text.__aeabi_f2lz
                0x00000000       0x5c c:/nxp/mcuxpressoide_11.2.1_4149/ide/plugins/com.nxp.mcuxpresso.tools.win32_11.2.0.202008311134/tools/bin/../lib/gcc/arm-none-eabi/9.2.1/thumb/v7e-m+fp/hard\libcr_eabihelpers.a(float.o)
 .text.__aeabi_f2ulz
                0x00000000       0x3e c:/nxp/mcuxpressoide_11.2.1_4149/ide/plugins/com.nxp.mcuxpresso.tools.win32_11.2.0.202008311134/tools/bin/../lib/gcc/arm-none-eabi/9.2.1/thumb/v7e-m+fp/hard\libcr_eabihelpers.a(float.o)
 .text.__bhs_ui2f
                0x00000000       0x26 c:/nxp/mcuxpressoide_11.2.1_4149/ide/plugins/com.nxp.mcuxpresso.tools.win32_11.2.0.202008311134/tools/bin/../lib/gcc/arm-none-eabi/9.2.1/thumb/v7e-m+fp/hard\libcr_eabihelpers.a(float.o)
 .text.__bhs_ul2f
                0x00000000       0x46 c:/nxp/mcuxpressoide_11.2.1_4149/ide/plugins/com.nxp.mcuxpresso.tools.win32_11.2.0.202008311134/tools/bin/../lib/gcc/arm-none-eabi/9.2.1/thumb/v7e-m+fp/hard\libcr_eabihelpers.a(float.o)
 .text.__aeabi_i2f
                0x00000000       0x12 c:/nxp/mcuxpressoide_11.2.1_4149/ide/plugins/com.nxp.mcuxpresso.tools.win32_11.2.0.202008311134/tools/bin/../lib/gcc/arm-none-eabi/9.2.1/thumb/v7e-m+fp/hard\libcr_eabihelpers.a(float.o)
 .text.__aeabi_ui2f
                0x00000000        0x8 c:/nxp/mcuxpressoide_11.2.1_4149/ide/plugins/com.nxp.mcuxpresso.tools.win32_11.2.0.202008311134/tools/bin/../lib/gcc/arm-none-eabi/9.2.1/thumb/v7e-m+fp/hard\libcr_eabihelpers.a(float.o)
 .text.__aeabi_l2f
                0x00000000       0x1c c:/nxp/mcuxpressoide_11.2.1_4149/ide/plugins/com.nxp.mcuxpresso.tools.win32_11.2.0.202008311134/tools/bin/../lib/gcc/arm-none-eabi/9.2.1/thumb/v7e-m+fp/hard\libcr_eabihelpers.a(float.o)
 .text.__aeabi_ul2f
                0x00000000        0x8 c:/nxp/mcuxpressoide_11.2.1_4149/ide/plugins/com.nxp.mcuxpresso.tools.win32_11.2.0.202008311134/tools/bin/../lib/gcc/arm-none-eabi/9.2.1/thumb/v7e-m+fp/hard\libcr_eabihelpers.a(float.o)
 .text.__aeabi_fcmpeq
                0x00000000       0x1e c:/nxp/mcuxpressoide_11.2.1_4149/ide/plugins/com.nxp.mcuxpresso.tools.win32_11.2.0.202008311134/tools/bin/../lib/gcc/arm-none-eabi/9.2.1/thumb/v7e-m+fp/hard\libcr_eabihelpers.a(float.o)
 .text.__aeabi_fcmplt
                0x00000000       0x3a c:/nxp/mcuxpressoide_11.2.1_4149/ide/plugins/com.nxp.mcuxpresso.tools.win32_11.2.0.202008311134/tools/bin/../lib/gcc/arm-none-eabi/9.2.1/thumb/v7e-m+fp/hard\libcr_eabihelpers.a(float.o)
 .text.__aeabi_fcmpgt
                0x00000000       0x3a c:/nxp/mcuxpressoide_11.2.1_4149/ide/plugins/com.nxp.mcuxpresso.tools.win32_11.2.0.202008311134/tools/bin/../lib/gcc/arm-none-eabi/9.2.1/thumb/v7e-m+fp/hard\libcr_eabihelpers.a(float.o)
 .text.__aeabi_fcmple
                0x00000000       0x3e c:/nxp/mcuxpressoide_11.2.1_4149/ide/plugins/com.nxp.mcuxpresso.tools.win32_11.2.0.202008311134/tools/bin/../lib/gcc/arm-none-eabi/9.2.1/thumb/v7e-m+fp/hard\libcr_eabihelpers.a(float.o)
 .text.__aeabi_fcmpge
                0x00000000       0x3e c:/nxp/mcuxpressoide_11.2.1_4149/ide/plugins/com.nxp.mcuxpresso.tools.win32_11.2.0.202008311134/tools/bin/../lib/gcc/arm-none-eabi/9.2.1/thumb/v7e-m+fp/hard\libcr_eabihelpers.a(float.o)
 .text.__aeabi_fcmpun
                0x00000000       0x1a c:/nxp/mcuxpressoide_11.2.1_4149/ide/plugins/com.nxp.mcuxpresso.tools.win32_11.2.0.202008311134/tools/bin/../lib/gcc/arm-none-eabi/9.2.1/thumb/v7e-m+fp/hard\libcr_eabihelpers.a(float.o)
 .text.__aeabi_cfcmple
                0x00000000       0x20 c:/nxp/mcuxpressoide_11.2.1_4149/ide/plugins/com.nxp.mcuxpresso.tools.win32_11.2.0.202008311134/tools/bin/../lib/gcc/arm-none-eabi/9.2.1/thumb/v7e-m+fp/hard\libcr_eabihelpers.a(float.o)
 .text.__aeabi_cfrcmple
                0x00000000        0xa c:/nxp/mcuxpressoide_11.2.1_4149/ide/plugins/com.nxp.mcuxpresso.tools.win32_11.2.0.202008311134/tools/bin/../lib/gcc/arm-none-eabi/9.2.1/thumb/v7e-m+fp/hard\libcr_eabihelpers.a(float.o)
 .text          0x00000000        0x0 c:/nxp/mcuxpressoide_11.2.1_4149/ide/plugins/com.nxp.mcuxpresso.tools.win32_11.2.0.202008311134/tools/bin/../lib/gcc/arm-none-eabi/9.2.1/thumb/v7e-m+fp/hard\libcr_eabihelpers.a(memcpy.o)
 .data          0x00000000        0x0 c:/nxp/mcuxpressoide_11.2.1_4149/ide/plugins/com.nxp.mcuxpresso.tools.win32_11.2.0.202008311134/tools/bin/../lib/gcc/arm-none-eabi/9.2.1/thumb/v7e-m+fp/hard\libcr_eabihelpers.a(memcpy.o)
 .bss           0x00000000        0x0 c:/nxp/mcuxpressoide_11.2.1_4149/ide/plugins/com.nxp.mcuxpresso.tools.win32_11.2.0.202008311134/tools/bin/../lib/gcc/arm-none-eabi/9.2.1/thumb/v7e-m+fp/hard\libcr_eabihelpers.a(memcpy.o)
 .text.__aeabi_memmove
                0x00000000       0x1c c:/nxp/mcuxpressoide_11.2.1_4149/ide/plugins/com.nxp.mcuxpresso.tools.win32_11.2.0.202008311134/tools/bin/../lib/gcc/arm-none-eabi/9.2.1/thumb/v7e-m+fp/hard\libcr_eabihelpers.a(memcpy.o)
 .text.__aeabi_memclr
                0x00000000        0x8 c:/nxp/mcuxpressoide_11.2.1_4149/ide/plugins/com.nxp.mcuxpresso.tools.win32_11.2.0.202008311134/tools/bin/../lib/gcc/arm-none-eabi/9.2.1/thumb/v7e-m+fp/hard\libcr_eabihelpers.a(memcpy.o)
 .text.__aeabi_memset
                0x00000000        0xa c:/nxp/mcuxpressoide_11.2.1_4149/ide/plugins/com.nxp.mcuxpresso.tools.win32_11.2.0.202008311134/tools/bin/../lib/gcc/arm-none-eabi/9.2.1/thumb/v7e-m+fp/hard\libcr_eabihelpers.a(memcpy.o)
 .text          0x00000000        0x0 c:/nxp/mcuxpressoide_11.2.1_4149/ide/plugins/com.nxp.mcuxpresso.tools.win32_11.2.0.202008311134/tools/bin/../lib/gcc/arm-none-eabi/9.2.1/../../../../arm-none-eabi/lib/thumb/v7e-m+fp/hard\libcr_semihost_nf.a(__ciob.o)
 .data          0x00000000        0x0 c:/nxp/mcuxpressoide_11.2.1_4149/ide/plugins/com.nxp.mcuxpresso.tools.win32_11.2.0.202008311134/tools/bin/../lib/gcc/arm-none-eabi/9.2.1/../../../../arm-none-eabi/lib/thumb/v7e-m+fp/hard\libcr_semihost_nf.a(__ciob.o)
 .bss           0x00000000        0x0 c:/nxp/mcuxpressoide_11.2.1_4149/ide/plugins/com.nxp.mcuxpresso.tools.win32_11.2.0.202008311134/tools/bin/../lib/gcc/arm-none-eabi/9.2.1/../../../../arm-none-eabi/lib/thumb/v7e-m+fp/hard\libcr_semihost_nf.a(__ciob.o)
 .text          0x00000000        0x0 c:/nxp/mcuxpressoide_11.2.1_4149/ide/plugins/com.nxp.mcuxpresso.tools.win32_11.2.0.202008311134/tools/bin/../lib/gcc/arm-none-eabi/9.2.1/../../../../arm-none-eabi/lib/thumb/v7e-m+fp/hard\libcr_semihost_nf.a(__sys_appexit.o)
 .data          0x00000000        0x0 c:/nxp/mcuxpressoide_11.2.1_4149/ide/plugins/com.nxp.mcuxpresso.tools.win32_11.2.0.202008311134/tools/bin/../lib/gcc/arm-none-eabi/9.2.1/../../../../arm-none-eabi/lib/thumb/v7e-m+fp/hard\libcr_semihost_nf.a(__sys_appexit.o)
 .bss           0x00000000        0x0 c:/nxp/mcuxpressoide_11.2.1_4149/ide/plugins/com.nxp.mcuxpresso.tools.win32_11.2.0.202008311134/tools/bin/../lib/gcc/arm-none-eabi/9.2.1/../../../../arm-none-eabi/lib/thumb/v7e-m+fp/hard\libcr_semihost_nf.a(__sys_appexit.o)
 .text          0x00000000        0x0 c:/nxp/mcuxpressoide_11.2.1_4149/ide/plugins/com.nxp.mcuxpresso.tools.win32_11.2.0.202008311134/tools/bin/../lib/gcc/arm-none-eabi/9.2.1/../../../../arm-none-eabi/lib/thumb/v7e-m+fp/hard\libcr_semihost_nf.a(__sys_close.o)
 .data          0x00000000        0x0 c:/nxp/mcuxpressoide_11.2.1_4149/ide/plugins/com.nxp.mcuxpresso.tools.win32_11.2.0.202008311134/tools/bin/../lib/gcc/arm-none-eabi/9.2.1/../../../../arm-none-eabi/lib/thumb/v7e-m+fp/hard\libcr_semihost_nf.a(__sys_close.o)
 .bss           0x00000000        0x0 c:/nxp/mcuxpressoide_11.2.1_4149/ide/plugins/com.nxp.mcuxpresso.tools.win32_11.2.0.202008311134/tools/bin/../lib/gcc/arm-none-eabi/9.2.1/../../../../arm-none-eabi/lib/thumb/v7e-m+fp/hard\libcr_semihost_nf.a(__sys_close.o)
 .text          0x00000000        0x0 c:/nxp/mcuxpressoide_11.2.1_4149/ide/plugins/com.nxp.mcuxpresso.tools.win32_11.2.0.202008311134/tools/bin/../lib/gcc/arm-none-eabi/9.2.1/../../../../arm-none-eabi/lib/thumb/v7e-m+fp/hard\libcr_semihost_nf.a(__sys_flen.o)
 .data          0x00000000        0x0 c:/nxp/mcuxpressoide_11.2.1_4149/ide/plugins/com.nxp.mcuxpresso.tools.win32_11.2.0.202008311134/tools/bin/../lib/gcc/arm-none-eabi/9.2.1/../../../../arm-none-eabi/lib/thumb/v7e-m+fp/hard\libcr_semihost_nf.a(__sys_flen.o)
 .bss           0x00000000        0x0 c:/nxp/mcuxpressoide_11.2.1_4149/ide/plugins/com.nxp.mcuxpresso.tools.win32_11.2.0.202008311134/tools/bin/../lib/gcc/arm-none-eabi/9.2.1/../../../../arm-none-eabi/lib/thumb/v7e-m+fp/hard\libcr_semihost_nf.a(__sys_flen.o)
 .text          0x00000000        0x0 c:/nxp/mcuxpressoide_11.2.1_4149/ide/plugins/com.nxp.mcuxpresso.tools.win32_11.2.0.202008311134/tools/bin/../lib/gcc/arm-none-eabi/9.2.1/../../../../arm-none-eabi/lib/thumb/v7e-m+fp/hard\libcr_semihost_nf.a(__sys_istty.o)
 .data          0x00000000        0x0 c:/nxp/mcuxpressoide_11.2.1_4149/ide/plugins/com.nxp.mcuxpresso.tools.win32_11.2.0.202008311134/tools/bin/../lib/gcc/arm-none-eabi/9.2.1/../../../../arm-none-eabi/lib/thumb/v7e-m+fp/hard\libcr_semihost_nf.a(__sys_istty.o)
 .bss           0x00000000        0x0 c:/nxp/mcuxpressoide_11.2.1_4149/ide/plugins/com.nxp.mcuxpresso.tools.win32_11.2.0.202008311134/tools/bin/../lib/gcc/arm-none-eabi/9.2.1/../../../../arm-none-eabi/lib/thumb/v7e-m+fp/hard\libcr_semihost_nf.a(__sys_istty.o)
 .text          0x00000000        0x0 c:/nxp/mcuxpressoide_11.2.1_4149/ide/plugins/com.nxp.mcuxpresso.tools.win32_11.2.0.202008311134/tools/bin/../lib/gcc/arm-none-eabi/9.2.1/../../../../arm-none-eabi/lib/thumb/v7e-m+fp/hard\libcr_semihost_nf.a(__sys_remove.o)
 .data          0x00000000        0x0 c:/nxp/mcuxpressoide_11.2.1_4149/ide/plugins/com.nxp.mcuxpresso.tools.win32_11.2.0.202008311134/tools/bin/../lib/gcc/arm-none-eabi/9.2.1/../../../../arm-none-eabi/lib/thumb/v7e-m+fp/hard\libcr_semihost_nf.a(__sys_remove.o)
 .bss           0x00000000        0x0 c:/nxp/mcuxpressoide_11.2.1_4149/ide/plugins/com.nxp.mcuxpresso.tools.win32_11.2.0.202008311134/tools/bin/../lib/gcc/arm-none-eabi/9.2.1/../../../../arm-none-eabi/lib/thumb/v7e-m+fp/hard\libcr_semihost_nf.a(__sys_remove.o)
 .text          0x00000000        0x0 c:/nxp/mcuxpressoide_11.2.1_4149/ide/plugins/com.nxp.mcuxpresso.tools.win32_11.2.0.202008311134/tools/bin/../lib/gcc/arm-none-eabi/9.2.1/../../../../arm-none-eabi/lib/thumb/v7e-m+fp/hard\libcr_semihost_nf.a(__sys_rename.o)
 .data          0x00000000        0x0 c:/nxp/mcuxpressoide_11.2.1_4149/ide/plugins/com.nxp.mcuxpresso.tools.win32_11.2.0.202008311134/tools/bin/../lib/gcc/arm-none-eabi/9.2.1/../../../../arm-none-eabi/lib/thumb/v7e-m+fp/hard\libcr_semihost_nf.a(__sys_rename.o)
 .bss           0x00000000        0x0 c:/nxp/mcuxpressoide_11.2.1_4149/ide/plugins/com.nxp.mcuxpresso.tools.win32_11.2.0.202008311134/tools/bin/../lib/gcc/arm-none-eabi/9.2.1/../../../../arm-none-eabi/lib/thumb/v7e-m+fp/hard\libcr_semihost_nf.a(__sys_rename.o)
 .text.__sys_rename
                0x00000000        0xc c:/nxp/mcuxpressoide_11.2.1_4149/ide/plugins/com.nxp.mcuxpresso.tools.win32_11.2.0.202008311134/tools/bin/../lib/gcc/arm-none-eabi/9.2.1/../../../../arm-none-eabi/lib/thumb/v7e-m+fp/hard\libcr_semihost_nf.a(__sys_rename.o)
 .ARM.attributes
                0x00000000       0x20 c:/nxp/mcuxpressoide_11.2.1_4149/ide/plugins/com.nxp.mcuxpresso.tools.win32_11.2.0.202008311134/tools/bin/../lib/gcc/arm-none-eabi/9.2.1/../../../../arm-none-eabi/lib/thumb/v7e-m+fp/hard\libcr_semihost_nf.a(__sys_rename.o)
 .text          0x00000000        0x0 c:/nxp/mcuxpressoide_11.2.1_4149/ide/plugins/com.nxp.mcuxpresso.tools.win32_11.2.0.202008311134/tools/bin/../lib/gcc/arm-none-eabi/9.2.1/../../../../arm-none-eabi/lib/thumb/v7e-m+fp/hard\libcr_semihost_nf.a(__sys_seek.o)
 .data          0x00000000        0x0 c:/nxp/mcuxpressoide_11.2.1_4149/ide/plugins/com.nxp.mcuxpresso.tools.win32_11.2.0.202008311134/tools/bin/../lib/gcc/arm-none-eabi/9.2.1/../../../../arm-none-eabi/lib/thumb/v7e-m+fp/hard\libcr_semihost_nf.a(__sys_seek.o)
 .bss           0x00000000        0x0 c:/nxp/mcuxpressoide_11.2.1_4149/ide/plugins/com.nxp.mcuxpresso.tools.win32_11.2.0.202008311134/tools/bin/../lib/gcc/arm-none-eabi/9.2.1/../../../../arm-none-eabi/lib/thumb/v7e-m+fp/hard\libcr_semihost_nf.a(__sys_seek.o)
 .text          0x00000000        0x0 c:/nxp/mcuxpressoide_11.2.1_4149/ide/plugins/com.nxp.mcuxpresso.tools.win32_11.2.0.202008311134/tools/bin/../lib/gcc/arm-none-eabi/9.2.1/../../../../arm-none-eabi/lib/thumb/v7e-m+fp/hard\libcr_semihost_nf.a(__sys_tmpnam.o)
 .data          0x00000000        0x0 c:/nxp/mcuxpressoide_11.2.1_4149/ide/plugins/com.nxp.mcuxpresso.tools.win32_11.2.0.202008311134/tools/bin/../lib/gcc/arm-none-eabi/9.2.1/../../../../arm-none-eabi/lib/thumb/v7e-m+fp/hard\libcr_semihost_nf.a(__sys_tmpnam.o)
 .bss           0x00000000        0x0 c:/nxp/mcuxpressoide_11.2.1_4149/ide/plugins/com.nxp.mcuxpresso.tools.win32_11.2.0.202008311134/tools/bin/../lib/gcc/arm-none-eabi/9.2.1/../../../../arm-none-eabi/lib/thumb/v7e-m+fp/hard\libcr_semihost_nf.a(__sys_tmpnam.o)
 .text          0x00000000        0x0 c:/nxp/mcuxpressoide_11.2.1_4149/ide/plugins/com.nxp.mcuxpresso.tools.win32_11.2.0.202008311134/tools/bin/../lib/gcc/arm-none-eabi/9.2.1/../../../../arm-none-eabi/lib/thumb/v7e-m+fp/hard\libcr_semihost_nf.a(__sys_write.o)
 .data          0x00000000        0x0 c:/nxp/mcuxpressoide_11.2.1_4149/ide/plugins/com.nxp.mcuxpresso.tools.win32_11.2.0.202008311134/tools/bin/../lib/gcc/arm-none-eabi/9.2.1/../../../../arm-none-eabi/lib/thumb/v7e-m+fp/hard\libcr_semihost_nf.a(__sys_write.o)
 .bss           0x00000000        0x0 c:/nxp/mcuxpressoide_11.2.1_4149/ide/plugins/com.nxp.mcuxpresso.tools.win32_11.2.0.202008311134/tools/bin/../lib/gcc/arm-none-eabi/9.2.1/../../../../arm-none-eabi/lib/thumb/v7e-m+fp/hard\libcr_semihost_nf.a(__sys_write.o)

Memory Configuration

Name             Origin             Length             Attributes
PROGRAM_FLASH    0x00002000         0x0007e000         xr
SRAM_UPPER       0x20000000         0x00010000         xrw
SRAM_LOWER       0x1fff0000         0x00010000         xrw
*default*        0x00000000         0xffffffff

Linker script and memory map

LOAD ./usb/device/source/khci/usb_device_khci.o
LOAD ./usb/device/source/usb_device_ch9.o
LOAD ./usb/device/source/usb_device_dci.o
LOAD ./usb/device/class/cdc/usb_device_cdc_acm.o
LOAD ./usb/device/class/usb_device_class.o
LOAD ./startup/startup_mk22f51212.o
LOAD ./source/usb/usb_device_descriptor.o
LOAD ./source/usb/virtual_com.o
LOAD ./source/Tracealyzer/streamports/Jlink_RTT/SEGGER_RTT.o
LOAD ./source/Tracealyzer/streamports/Jlink_RTT/trcStreamingPort.o
LOAD ./source/Tracealyzer/trcKernelPort.o
LOAD ./source/Tracealyzer/trcSnapshotRecorder.o
LOAD ./source/Tracealyzer/trcStreamingRecorder.o
LOAD ./source/BRDUINO_Nano.o
LOAD ./source/CmdInfo.o
LOAD ./source/CmdSystem.o
LOAD ./source/CommandHandler.o
LOAD ./source/Misc.o
LOAD ./source/System.o
LOAD ./source/crc.o
LOAD ./source/semihost_hardfault.o
LOAD ./source/uart.o
LOAD ./freertos/freertos_kernel/portable/MemMang/heap_4.o
LOAD ./freertos/freertos_kernel/portable/GCC/ARM_CM4F/port.o
LOAD ./freertos/freertos_kernel/croutine.o
LOAD ./freertos/freertos_kernel/event_groups.o
LOAD ./freertos/freertos_kernel/list.o
LOAD ./freertos/freertos_kernel/queue.o
LOAD ./freertos/freertos_kernel/stream_buffer.o
LOAD ./freertos/freertos_kernel/tasks.o
LOAD ./freertos/freertos_kernel/timers.o
LOAD ./drivers/fsl_adc16.o
LOAD ./drivers/fsl_clock.o
LOAD ./drivers/fsl_common.o
LOAD ./drivers/fsl_crc.o
LOAD ./drivers/fsl_dac.o
LOAD ./drivers/fsl_dspi.o
LOAD ./drivers/fsl_ftfx_cache.o
LOAD ./drivers/fsl_ftfx_controller.o
LOAD ./drivers/fsl_ftfx_flash.o
LOAD ./drivers/fsl_ftfx_flexnvm.o
LOAD ./drivers/fsl_ftm.o
LOAD ./drivers/fsl_gpio.o
LOAD ./drivers/fsl_i2c.o
LOAD ./drivers/fsl_pit.o
LOAD ./drivers/fsl_rnga.o
LOAD ./drivers/fsl_rtc.o
LOAD ./drivers/fsl_sim.o
LOAD ./drivers/fsl_smc.o
LOAD ./drivers/fsl_uart.o
LOAD ./drivers/fsl_vref.o
LOAD ./drivers/fsl_wdog.o
LOAD ./device/system_MK22F51212.o
LOAD ./component/osa/fsl_os_abstraction_free_rtos.o
LOAD ./component/lists/generic_list.o
LOAD ./board/board.o
LOAD ./board/clock_config.o
LOAD ./board/peripherals.o
LOAD ./board/pin_mux.o
START GROUP
LOAD c:/nxp/mcuxpressoide_11.2.1_4149/ide/plugins/com.nxp.mcuxpresso.tools.win32_11.2.0.202008311134/tools/bin/../lib/gcc/arm-none-eabi/9.2.1/../../../../arm-none-eabi/lib/thumb/v7e-m+fp/hard\libcr_semihost_nf.a
LOAD c:/nxp/mcuxpressoide_11.2.1_4149/ide/plugins/com.nxp.mcuxpresso.tools.win32_11.2.0.202008311134/tools/bin/../lib/gcc/arm-none-eabi/9.2.1/../../../../arm-none-eabi/lib/thumb/v7e-m+fp/hard\libcr_c.a
LOAD c:/nxp/mcuxpressoide_11.2.1_4149/ide/plugins/com.nxp.mcuxpresso.tools.win32_11.2.0.202008311134/tools/bin/../lib/gcc/arm-none-eabi/9.2.1/thumb/v7e-m+fp/hard\libcr_eabihelpers.a
LOAD c:/nxp/mcuxpressoide_11.2.1_4149/ide/plugins/com.nxp.mcuxpresso.tools.win32_11.2.0.202008311134/tools/bin/../lib/gcc/arm-none-eabi/9.2.1/thumb/v7e-m+fp/hard\libgcc.a
END GROUP
                0x00002000                __base_PROGRAM_FLASH = 0x2000
                0x00002000                __base_Flash = 0x2000
                0x00080000                __top_PROGRAM_FLASH = 0x80000
                0x00080000                __top_Flash = 0x80000
                0x20000000                __base_SRAM_UPPER = 0x20000000
                0x20000000                __base_RAM = 0x20000000
                0x20010000                __top_SRAM_UPPER = 0x20010000
                0x20010000                __top_RAM = 0x20010000
                0x1fff0000                __base_SRAM_LOWER = 0x1fff0000
                0x1fff0000                __base_RAM2 = 0x1fff0000
                0x20000000                __top_SRAM_LOWER = 0x20000000
                0x20000000                __top_RAM2 = 0x20000000

.text           0x00002000     0x99a4
 FILL mask 0xff
                0x00002000                __vectors_start__ = ABSOLUTE (.)
 *(SORT_BY_ALIGNMENT(.isr_vector))
 .isr_vector    0x00002000      0x168 ./startup/startup_mk22f51212.o
                0x00002000                g_pfnVectors
                0x00002000                __Vectors
                0x00002168                . = ALIGN (0x4)
                0x00002168                __section_table_start = .
                0x00002168                __data_section_table = .
                0x00002168        0x4 LONG 0xb9a4 LOADADDR (.data)
                0x0000216c        0x4 LONG 0x20000000 ADDR (.data)
                0x00002170        0x4 LONG 0x250 SIZEOF (.data)
                0x00002174        0x4 LONG 0xb9a4 LOADADDR (.data_RAM2)
                0x00002178        0x4 LONG 0x1fff0000 ADDR (.data_RAM2)
                0x0000217c        0x4 LONG 0x0 SIZEOF (.data_RAM2)
                0x00002180                __data_section_table_end = .
                0x00002180                __bss_section_table = .
                0x00002180        0x4 LONG 0x20000400 ADDR (.bss)
                0x00002184        0x4 LONG 0x73d0 SIZEOF (.bss)
                0x00002188        0x4 LONG 0x1fff0000 ADDR (.bss_RAM2)
                0x0000218c        0x4 LONG 0x0 SIZEOF (.bss_RAM2)
                0x00002190                __bss_section_table_end = .
                0x00002190                __section_table_end = .
 *(SORT_BY_ALIGNMENT(.after_vectors*))
 .after_vectors.reset
                0x00002190       0x48 ./startup/startup_mk22f51212.o
                0x00002190                ResetISR
 .after_vectors
                0x000021d8       0x14 ./startup/startup_mk22f51212.o
                0x000021d8                NMI_Handler
                0x000021dc                MemManage_Handler
                0x000021de                BusFault_Handler
                0x000021e0                UsageFault_Handler
                0x000021e4                DebugMon_Handler
                0x000021ea                DMA_Error_DriverIRQHandler
                0x000021ea                LPTMR0_DriverIRQHandler
                0x000021ea                FTM1_DriverIRQHandler
                0x000021ea                FTM2_DriverIRQHandler
                0x000021ea                PIT2_DriverIRQHandler
                0x000021ea                Reserved82_DriverIRQHandler
                0x000021ea                I2S0_Tx_DriverIRQHandler
                0x000021ea                RTC_Seconds_DriverIRQHandler
                0x000021ea                FTF_DriverIRQHandler
                0x000021ea                DMA6_DriverIRQHandler
                0x000021ea                LLWU_DriverIRQHandler
                0x000021ea                MCM_DriverIRQHandler
                0x000021ea                MCG_DriverIRQHandler
                0x000021ea                DAC1_DriverIRQHandler
                0x000021ea                DMA12_DriverIRQHandler
                0x000021ea                CMP1_DriverIRQHandler
                0x000021ea                FTM0_DriverIRQHandler
                0x000021ea                IntDefaultHandler
                0x000021ea                USB0_DriverIRQHandler
                0x000021ea                PORTC_DriverIRQHandler
                0x000021ea                DMA11_DriverIRQHandler
                0x000021ea                DAC0_DriverIRQHandler
                0x000021ea                DMA10_DriverIRQHandler
                0x000021ea                UART2_ERR_DriverIRQHandler
                0x000021ea                LVD_LVW_DriverIRQHandler
                0x000021ea                Reserved84_DriverIRQHandler
                0x000021ea                PIT0_DriverIRQHandler
                0x000021ea                RNG_DriverIRQHandler
                0x000021ea                PORTB_DriverIRQHandler
                0x000021ea                DMA4_DriverIRQHandler
                0x000021ea                DMA3_DriverIRQHandler
                0x000021ea                Reserved53_DriverIRQHandler
                0x000021ea                DMA8_DriverIRQHandler
                0x000021ea                DMA9_DriverIRQHandler
                0x000021ea                UART0_ERR_DriverIRQHandler
                0x000021ea                Reserved71_DriverIRQHandler
                0x000021ea                ADC1_DriverIRQHandler
                0x000021ea                PORTA_DriverIRQHandler
                0x000021ea                DMA14_DriverIRQHandler
                0x000021ea                PIT3_DriverIRQHandler
                0x000021ea                PIT1_DriverIRQHandler
                0x000021ea                WDOG_EWM_DriverIRQHandler
                0x000021ea                PDB0_DriverIRQHandler
                0x000021ea                Reserved83_DriverIRQHandler
                0x000021ea                Reserved61_DriverIRQHandler
                0x000021ea                RTC_DriverIRQHandler
                0x000021ea                I2S0_Rx_DriverIRQHandler
                0x000021ea                Read_Collision_DriverIRQHandler
                0x000021ea                Reserved54_DriverIRQHandler
                0x000021ea                SWI_DriverIRQHandler
                0x000021ea                DMA0_DriverIRQHandler
                0x000021ea                DMA1_DriverIRQHandler
                0x000021ea                DMA13_DriverIRQHandler
                0x000021ea                DMA15_DriverIRQHandler
                0x000021ea                LPUART0_DriverIRQHandler
                0x000021ea                Reserved85_DriverIRQHandler
                0x000021ea                Reserved81_DriverIRQHandler
                0x000021ea                ADC0_DriverIRQHandler
                0x000021ea                CMP0_DriverIRQHandler
                0x000021ea                FTM3_DriverIRQHandler
                0x000021ea                DMA5_DriverIRQHandler
                0x000021ea                UART1_ERR_DriverIRQHandler
                0x000021ea                DMA2_DriverIRQHandler
                0x000021ea                PORTD_DriverIRQHandler
                0x000021ea                Reserved70_DriverIRQHandler
                0x000021ea                Reserved86_DriverIRQHandler
                0x000021ea                PORTE_DriverIRQHandler
                0x000021ea                DMA7_DriverIRQHandler
 .after_vectors.init_data
                0x000021ec       0x12 ./startup/startup_mk22f51212.o
                0x000021ec                data_init
 .after_vectors.init_bss
                0x000021fe       0x10 ./startup/startup_mk22f51212.o
                0x000021fe                bss_init
                0x00000400                . = 0x400
 *fill*         0x0000220e      0x1f2 ff
                0x00002400                PROVIDE (__FLASH_CONFIG_START__ = .)
 *(SORT_BY_ALIGNMENT(.FlashConfig))
 .FlashConfig   0x00002400       0x10 ./startup/startup_mk22f51212.o
                0x00002400                Flash_Config
                0x00002410                PROVIDE (__FLASH_CONFIG_END__ = .)
                0x00000001                ASSERT (! ((__FLASH_CONFIG_START__ == __FLASH_CONFIG_END__)), Linker Flash Config Support Enabled, but no .FlashConfig section provided within application)
 *(SORT_BY_ALIGNMENT(.text*))
 .text.SVC_Handler
                0x00002410       0x24 ./freertos/freertos_kernel/portable/GCC/ARM_CM4F/port.o
                0x00002410                SVC_Handler
 *fill*         0x00002434        0xc ff
 .text.PendSV_Handler
                0x00002440       0x64 ./freertos/freertos_kernel/portable/GCC/ARM_CM4F/port.o
                0x00002440                PendSV_Handler
 *fill*         0x000024a4        0x4 ff
 .text.BOARD_InitFTM1
                0x000024a8       0xd8 ./board/board.o
                0x000024a8                BOARD_InitFTM1
 .text.USB_DeviceKhciEndpointTransfer
                0x00002580       0x88 ./usb/device/source/khci/usb_device_khci.o
 .text.USB_DeviceKhciInit
                0x00002608       0x68 ./usb/device/source/khci/usb_device_khci.o
                0x00002608                USB_DeviceKhciInit
 .text.USB_DeviceControlCallback
                0x00002670      0x1b0 ./usb/device/source/usb_device_ch9.o
 .text.USB_DeviceControlPipeInit
                0x00002820       0x4c ./usb/device/source/usb_device_ch9.o
                0x00002820                USB_DeviceControlPipeInit
 .text.USB_DeviceInit
                0x0000286c       0xbc ./usb/device/source/usb_device_dci.o
                0x0000286c                USB_DeviceInit
 .text.USB_DeviceCdcAcmEndpointsInit
                0x00002928      0x1d4 ./usb/device/class/cdc/usb_device_cdc_acm.o
 .text.USB_DeviceCdcAcmInit
                0x00002afc       0x58 ./usb/device/class/cdc/usb_device_cdc_acm.o
                0x00002afc                USB_DeviceCdcAcmInit
 .text.USB_DeviceClassGetHandleByDeviceHandle
                0x00002b54       0x30 ./usb/device/class/usb_device_class.o
 .text.USB_DeviceClassFreeHandle
                0x00002b84       0x38 ./usb/device/class/usb_device_class.o
 .text.USB_DeviceClassGetDeviceHandle
                0x00002bbc       0x34 ./usb/device/class/usb_device_class.o
                0x00002bbc                USB_DeviceClassGetDeviceHandle
 .text.USB_DeviceClassEvent
                0x00002bf0       0x74 ./usb/device/class/usb_device_class.o
                0x00002bf0                USB_DeviceClassEvent
 .text.USB_DeviceClassInit
                0x00002c64       0xc8 ./usb/device/class/usb_device_class.o
                0x00002c64                USB_DeviceClassInit
 .text.USB_DeviceGetDeviceDescriptor
                0x00002d2c       0x10 ./source/usb/usb_device_descriptor.o
                0x00002d2c                USB_DeviceGetDeviceDescriptor
 .text.USB_DeviceGetConfigurationDescriptor
                0x00002d3c       0x18 ./source/usb/usb_device_descriptor.o
                0x00002d3c                USB_DeviceGetConfigurationDescriptor
 .text.USB_DeviceGetStringDescriptor
                0x00002d54       0x40 ./source/usb/usb_device_descriptor.o
                0x00002d54                USB_DeviceGetStringDescriptor
 .text.USB_DeviceCdcVcomCallback
                0x00002d94      0x1b4 ./source/usb/virtual_com.o
                0x00002d94                USB_DeviceCdcVcomCallback
 .text.USB_DeviceCallback
                0x00002f48       0xa4 ./source/usb/virtual_com.o
                0x00002f48                USB_DeviceCallback
 .text.USB0_IRQHandler
                0x00002fec       0x14 ./source/usb/virtual_com.o
                0x00002fec                USB0_IRQHandler
 .text.USB_DeviceClockInit
                0x00003000       0x18 ./source/usb/virtual_com.o
                0x00003000                USB_DeviceClockInit
 .text.USB_DeviceIsrEnable
                0x00003018       0x14 ./source/usb/virtual_com.o
                0x00003018                USB_DeviceIsrEnable
 .text.USB_DeviceApplicationInit
                0x0000302c       0x74 ./source/usb/virtual_com.o
                0x0000302c                USB_DeviceApplicationInit
 .text.APPTask  0x000030a0       0x68 ./source/usb/virtual_com.o
                0x000030a0                APPTask
 .text.USB_Putchar
                0x00003108       0x48 ./source/usb/virtual_com.o
                0x00003108                USB_Putchar
 .text.usb_main_init
                0x00003150       0x3c ./source/usb/virtual_com.o
                0x00003150                usb_main_init
 .text._DoInit  0x0000318c       0x5c ./source/Tracealyzer/streamports/Jlink_RTT/SEGGER_RTT.o
 .text.SEGGER_RTT_ReadNoLock
                0x000031e8       0x90 ./source/Tracealyzer/streamports/Jlink_RTT/SEGGER_RTT.o
                0x000031e8                SEGGER_RTT_ReadNoLock
 .text.SEGGER_RTT_WriteNoLock
                0x00003278       0x68 ./source/Tracealyzer/streamports/Jlink_RTT/SEGGER_RTT.o
                0x00003278                SEGGER_RTT_WriteNoLock
 .text.SEGGER_RTT_Write
                0x000032e0       0x34 ./source/Tracealyzer/streamports/Jlink_RTT/SEGGER_RTT.o
                0x000032e0                SEGGER_RTT_Write
 .text.SEGGER_RTT_ConfigUpBuffer
                0x00003314       0x64 ./source/Tracealyzer/streamports/Jlink_RTT/SEGGER_RTT.o
                0x00003314                SEGGER_RTT_ConfigUpBuffer
 .text.SEGGER_RTT_ConfigDownBuffer
                0x00003378       0x5c ./source/Tracealyzer/streamports/Jlink_RTT/SEGGER_RTT.o
                0x00003378                SEGGER_RTT_ConfigDownBuffer
 .text.readFromRTT
                0x000033d4       0x28 ./source/Tracealyzer/streamports/Jlink_RTT/trcStreamingPort.o
                0x000033d4                readFromRTT
 .text.prvAddTaskToStackMonitor
                0x000033fc       0x34 ./source/Tracealyzer/trcKernelPort.o
                0x000033fc                prvAddTaskToStackMonitor
 .text.prvReportStackUsage
                0x00003430       0x5c ./source/Tracealyzer/trcKernelPort.o
                0x00003430                prvReportStackUsage
 .text.TzCtrl   0x0000348c       0xb8 ./source/Tracealyzer/trcKernelPort.o
 .text.vTraceEnable
                0x00003544       0xec ./source/Tracealyzer/trcKernelPort.o
                0x00003544                vTraceEnable
 .text.prvIsNewTCB
                0x00003630       0x14 ./source/Tracealyzer/trcKernelPort.o
                0x00003630                prvIsNewTCB
 .text.xTraceIsRecordingEnabled
                0x00003644        0xc ./source/Tracealyzer/trcStreamingRecorder.o
                0x00003644                xTraceIsRecordingEnabled
 .text.prvTraceSaveObjectSymbol
                0x00003650       0x74 ./source/Tracealyzer/trcStreamingRecorder.o
                0x00003650                prvTraceSaveObjectSymbol
 .text.prvTraceSaveSymbol
                0x000036c4       0x38 ./source/Tracealyzer/trcStreamingRecorder.o
                0x000036c4                prvTraceSaveSymbol
 .text.prvTraceDeleteSymbol
                0x000036fc       0x70 ./source/Tracealyzer/trcStreamingRecorder.o
                0x000036fc                prvTraceDeleteSymbol
 .text.prvTraceSaveObjectData
                0x0000376c       0x64 ./source/Tracealyzer/trcStreamingRecorder.o
                0x0000376c                prvTraceSaveObjectData
 .text.prvTraceError
                0x000037d0       0x58 ./source/Tracealyzer/trcStreamingRecorder.o
                0x000037d0                prvTraceError
 .text.prvTraceStoreEvent
                0x00003828       0x8c ./source/Tracealyzer/trcStreamingRecorder.o
                0x00003828                prvTraceStoreEvent
 .text.prvSetRecorderEnabled
                0x000038b4      0x1f4 ./source/Tracealyzer/trcStreamingRecorder.o
 .text.prvTraceStoreEvent3
                0x00003aa8       0x6c ./source/Tracealyzer/trcStreamingRecorder.o
                0x00003aa8                prvTraceStoreEvent3
 .text.prvTraceStoreStringEventHelper
                0x00003b14       0xec ./source/Tracealyzer/trcStreamingRecorder.o
 .text.prvTraceStoreSimpleStringEventHelper
                0x00003c00       0xb0 ./source/Tracealyzer/trcStreamingRecorder.o
                0x00003c00                prvTraceStoreSimpleStringEventHelper
 .text.prvTraceWarning
                0x00003cb0       0x40 ./source/Tracealyzer/trcStreamingRecorder.o
                0x00003cb0                prvTraceWarning
 .text.prvTraceStoreEvent1
                0x00003cf0       0x64 ./source/Tracealyzer/trcStreamingRecorder.o
                0x00003cf0                prvTraceStoreEvent1
 .text.prvTraceStoreEvent2
                0x00003d54       0x68 ./source/Tracealyzer/trcStreamingRecorder.o
                0x00003d54                prvTraceStoreEvent2
 .text.prvTraceInitCortexM
                0x00003dbc       0x4c ./source/Tracealyzer/trcStreamingRecorder.o
                0x00003dbc                prvTraceInitCortexM
 .text.startup.main
                0x00003e08      0x110 ./source/BRDUINO_Nano.o
                0x00003e08                main
 .text.cmd_SUB_SYS_GET_CLOCKS
                0x00003f18       0x78 ./source/CmdSystem.o
                0x00003f18                cmd_SUB_SYS_GET_CLOCKS
 .text.SendPacketCMD
                0x00003f90       0x14 ./source/CommandHandler.o
                0x00003f90                SendPacketCMD
 .text.SendCommandType
                0x00003fa4        0xc ./source/CommandHandler.o
                0x00003fa4                SendCommandType
 .text.SendNAK  0x00003fb0       0x3c ./source/CommandHandler.o
                0x00003fb0                SendNAK
 .text.InitCommandHandler
                0x00003fec       0x2c ./source/CommandHandler.o
                0x00003fec                InitCommandHandler
 .text.CommandHandler
                0x00004018      0x14c ./source/CommandHandler.o
                0x00004018                CommandHandler
 .text.UART_CmdIF_HandleUSB
                0x00004164      0x130 ./source/CommandHandler.o
                0x00004164                UART_CmdIF_HandleUSB
 .text.UART_CmdIF_IRQHandler
                0x00004294      0x130 ./source/CommandHandler.o
                0x00004294                UART_CmdIF_IRQHandler
 .text.GetSystemInfoStructPtr
                0x000043c4        0x8 ./source/System.o
                0x000043c4                GetSystemInfoStructPtr
 .text.CRC_init
                0x000043cc       0x14 ./source/crc.o
                0x000043cc                CRC_init
 .text.CRC_Config
                0x000043e0       0x4c ./source/crc.o
                0x000043e0                CRC_Config
 .text.CRC_Cal_16
                0x0000442c       0x30 ./source/crc.o
                0x0000442c                CRC_Cal_16
 .text.UART_CmdIF_IRQDispatcher
                0x0000445c       0x78 ./source/uart.o
 .text.__NVIC_EnableIRQ
                0x000044d4       0x1c ./source/uart.o
 .text.GetUARTdescriptorFromPtr
                0x000044f0       0x14 ./source/uart.o
                0x000044f0                GetUARTdescriptorFromPtr
 .text.UART_InitIRQ
                0x00004504       0x5c ./source/uart.o
                0x00004504                UART_InitIRQ
 .text.UART_InitUart
                0x00004560       0x54 ./source/uart.o
                0x00004560                UART_InitUart
 .text.UART_SendPacketCMD
                0x000045b4       0xd4 ./source/uart.o
                0x000045b4                UART_SendPacketCMD
 .text.prvInsertBlockIntoFreeList
                0x00004688       0x48 ./freertos/freertos_kernel/portable/MemMang/heap_4.o
 .text.pvPortMalloc
                0x000046d0      0x150 ./freertos/freertos_kernel/portable/MemMang/heap_4.o
                0x000046d0                pvPortMalloc
 .text.vPortFree
                0x00004820       0xac ./freertos/freertos_kernel/portable/MemMang/heap_4.o
                0x00004820                vPortFree
 .text.prvPortStartFirstTask
                0x000048cc       0x28 ./freertos/freertos_kernel/portable/GCC/ARM_CM4F/port.o
 .text.vPortEnableVFP
                0x000048f4       0x14 ./freertos/freertos_kernel/portable/GCC/ARM_CM4F/port.o
 .text.prvTaskExitError
                0x00004908       0x40 ./freertos/freertos_kernel/portable/GCC/ARM_CM4F/port.o
 .text.pxPortInitialiseStack
                0x00004948       0x2c ./freertos/freertos_kernel/portable/GCC/ARM_CM4F/port.o
                0x00004948                pxPortInitialiseStack
 .text.vPortEnterCritical
                0x00004974       0x44 ./freertos/freertos_kernel/portable/GCC/ARM_CM4F/port.o
                0x00004974                vPortEnterCritical
 .text.vPortExitCritical
                0x000049b8       0x28 ./freertos/freertos_kernel/portable/GCC/ARM_CM4F/port.o
                0x000049b8                vPortExitCritical
 .text.SysTick_Handler
                0x000049e0       0x2c ./freertos/freertos_kernel/portable/GCC/ARM_CM4F/port.o
                0x000049e0                SysTick_Handler
 .text.vPortSetupTimerInterrupt
                0x00004a0c       0x34 ./freertos/freertos_kernel/portable/GCC/ARM_CM4F/port.o
                0x00004a0c                vPortSetupTimerInterrupt
 .text.xPortStartScheduler
                0x00004a40      0x108 ./freertos/freertos_kernel/portable/GCC/ARM_CM4F/port.o
                0x00004a40                xPortStartScheduler
 .text.vPortValidateInterruptPriority
                0x00004b48       0x5c ./freertos/freertos_kernel/portable/GCC/ARM_CM4F/port.o
                0x00004b48                vPortValidateInterruptPriority
 .text.xQueueGenericReset
                0x00004ba4       0x80 ./freertos/freertos_kernel/queue.o
                0x00004ba4                xQueueGenericReset
 .text.xQueueGenericCreate
                0x00004c24      0x100 ./freertos/freertos_kernel/queue.o
                0x00004c24                xQueueGenericCreate
 .text.xQueueGenericSend
                0x00004d24      0x26c ./freertos/freertos_kernel/queue.o
                0x00004d24                xQueueGenericSend
 .text.xQueueGenericSendFromISR
                0x00004f90      0x13c ./freertos/freertos_kernel/queue.o
                0x00004f90                xQueueGenericSendFromISR
 .text.xQueueReceive
                0x000050cc      0x25c ./freertos/freertos_kernel/queue.o
                0x000050cc                xQueueReceive
 .text.vQueueAddToRegistry
                0x00005328       0x48 ./freertos/freertos_kernel/queue.o
                0x00005328                vQueueAddToRegistry
 .text.vQueueUnregisterQueue
                0x00005370       0x28 ./freertos/freertos_kernel/queue.o
                0x00005370                vQueueUnregisterQueue
 .text.vQueueDelete
                0x00005398       0x7c ./freertos/freertos_kernel/queue.o
                0x00005398                vQueueDelete
 .text.prvResetNextTaskUnblockTime
                0x00005414       0x24 ./freertos/freertos_kernel/tasks.o
 .text.prvAddCurrentTaskToDelayedList
                0x00005438       0x8c ./freertos/freertos_kernel/tasks.o
 .text.prvIdleTask
                0x000054c4       0x6c ./freertos/freertos_kernel/tasks.o
 .text.xTaskCreate
                0x00005530      0x24c ./freertos/freertos_kernel/tasks.o
                0x00005530                xTaskCreate
 .text.vTaskStartScheduler
                0x0000577c       0xb8 ./freertos/freertos_kernel/tasks.o
                0x0000577c                vTaskStartScheduler
 .text.vTaskSuspendAll
                0x00005834       0x10 ./freertos/freertos_kernel/tasks.o
                0x00005834                vTaskSuspendAll
 .text.xTaskGetTickCount
                0x00005844        0xc ./freertos/freertos_kernel/tasks.o
                0x00005844                xTaskGetTickCount
 .text.xTaskIncrementTick
                0x00005850      0x14c ./freertos/freertos_kernel/tasks.o
                0x00005850                xTaskIncrementTick
 .text.xTaskResumeAll
                0x0000599c      0x108 ./freertos/freertos_kernel/tasks.o
                0x0000599c                xTaskResumeAll
 .text.vTaskDelay
                0x00005aa4       0x6c ./freertos/freertos_kernel/tasks.o
                0x00005aa4                vTaskDelay
 .text.vTaskSwitchContext
                0x00005b10       0xac ./freertos/freertos_kernel/tasks.o
                0x00005b10                vTaskSwitchContext
 .text.vTaskPlaceOnEventList
                0x00005bbc       0x34 ./freertos/freertos_kernel/tasks.o
                0x00005bbc                vTaskPlaceOnEventList
 .text.vTaskPlaceOnEventListRestricted
                0x00005bf0       0x60 ./freertos/freertos_kernel/tasks.o
                0x00005bf0                vTaskPlaceOnEventListRestricted
 .text.xTaskRemoveFromEventList
                0x00005c50       0xa0 ./freertos/freertos_kernel/tasks.o
                0x00005c50                xTaskRemoveFromEventList
 .text.vTaskInternalSetTimeOutState
                0x00005cf0       0x18 ./freertos/freertos_kernel/tasks.o
                0x00005cf0                vTaskInternalSetTimeOutState
 .text.xTaskCheckForTimeOut
                0x00005d08       0x78 ./freertos/freertos_kernel/tasks.o
                0x00005d08                xTaskCheckForTimeOut
 .text.vTaskMissedYield
                0x00005d80        0xc ./freertos/freertos_kernel/tasks.o
                0x00005d80                vTaskMissedYield
 .text.uxTaskGetStackHighWaterMark
                0x00005d8c       0x20 ./freertos/freertos_kernel/tasks.o
                0x00005d8c                uxTaskGetStackHighWaterMark
 .text.xTaskGetCurrentTaskHandle
                0x00005dac        0xc ./freertos/freertos_kernel/tasks.o
                0x00005dac                xTaskGetCurrentTaskHandle
 .text.xTaskGetSchedulerState
                0x00005db8       0x20 ./freertos/freertos_kernel/tasks.o
                0x00005db8                xTaskGetSchedulerState
 .text.xTaskPriorityDisinherit
                0x00005dd8       0xe8 ./freertos/freertos_kernel/tasks.o
                0x00005dd8                xTaskPriorityDisinherit
 .text.xTaskNotifyWait
                0x00005ec0       0xd4 ./freertos/freertos_kernel/tasks.o
                0x00005ec0                xTaskNotifyWait
 .text.xTaskGenericNotifyFromISR
                0x00005f94      0x150 ./freertos/freertos_kernel/tasks.o
                0x00005f94                xTaskGenericNotifyFromISR
 .text.prvCheckForValidListAndQueue
                0x000060e4       0x58 ./freertos/freertos_kernel/timers.o
 .text.prvInsertTimerInActiveList
                0x0000613c       0x3c ./freertos/freertos_kernel/timers.o
 .text.xTimerCreateTimerTask
                0x00006178       0x50 ./freertos/freertos_kernel/timers.o
                0x00006178                xTimerCreateTimerTask
 .text.xTimerGenericCommand
                0x000061c8       0x58 ./freertos/freertos_kernel/timers.o
                0x000061c8                xTimerGenericCommand
 .text.prvSwitchTimerLists
                0x00006220       0x7c ./freertos/freertos_kernel/timers.o
 .text.prvTimerTask
                0x0000629c      0x1f8 ./freertos/freertos_kernel/timers.o
 .text.ADC16_Init
                0x00006494       0xb0 ./drivers/fsl_adc16.o
                0x00006494                ADC16_Init
 .text.CLOCK_GetMcgExtClkFreq
                0x00006544       0x34 ./drivers/fsl_clock.o
 .text.CLOCK_GetFllExtRefClkFreq
                0x00006578       0x44 ./drivers/fsl_clock.o
 .text.CLOCK_GetInternalRefClkSelectFreq
                0x000065bc       0x28 ./drivers/fsl_clock.o
 .text.CLOCK_GetOsc0ErClkUndivFreq
                0x000065e4       0x18 ./drivers/fsl_clock.o
                0x000065e4                CLOCK_GetOsc0ErClkUndivFreq
 .text.CLOCK_GetOsc0ErClkDivFreq
                0x000065fc       0x20 ./drivers/fsl_clock.o
                0x000065fc                CLOCK_GetOsc0ErClkDivFreq
 .text.CLOCK_GetEr32kClkFreq
                0x0000661c       0x3c ./drivers/fsl_clock.o
                0x0000661c                CLOCK_GetEr32kClkFreq
 .text.CLOCK_SetSimConfig
                0x00006658       0x3c ./drivers/fsl_clock.o
                0x00006658                CLOCK_SetSimConfig
 .text.CLOCK_EnableUsbfs0Clock
                0x00006694       0xb4 ./drivers/fsl_clock.o
                0x00006694                CLOCK_EnableUsbfs0Clock
 .text.CLOCK_GetFllFreq
                0x00006748       0x50 ./drivers/fsl_clock.o
                0x00006748                CLOCK_GetFllFreq
 .text.CLOCK_GetInternalRefClkFreq
                0x00006798       0x14 ./drivers/fsl_clock.o
                0x00006798                CLOCK_GetInternalRefClkFreq
 .text.CLOCK_GetPll0Freq
                0x000067ac       0x2c ./drivers/fsl_clock.o
                0x000067ac                CLOCK_GetPll0Freq
 .text.CLOCK_GetPllFllSelClkFreq
                0x000067d8       0x30 ./drivers/fsl_clock.o
                0x000067d8                CLOCK_GetPllFllSelClkFreq
 .text.CLOCK_GetOutClkFreq
                0x00006808       0x28 ./drivers/fsl_clock.o
                0x00006808                CLOCK_GetOutClkFreq
 .text.CLOCK_GetBusClkFreq
                0x00006830       0x20 ./drivers/fsl_clock.o
                0x00006830                CLOCK_GetBusClkFreq
 .text.CLOCK_GetCoreSysClkFreq
                0x00006850       0x1c ./drivers/fsl_clock.o
                0x00006850                CLOCK_GetCoreSysClkFreq
 .text.CLOCK_GetFixedFreqClkFreq
                0x0000686c       0x30 ./drivers/fsl_clock.o
                0x0000686c                CLOCK_GetFixedFreqClkFreq
 .text.CLOCK_GetFreq
                0x0000689c       0xc0 ./drivers/fsl_clock.o
                0x0000689c                CLOCK_GetFreq
 .text.CLOCK_SetExternalRefClkConfig
                0x0000695c       0x34 ./drivers/fsl_clock.o
                0x0000695c                CLOCK_SetExternalRefClkConfig
 .text.CLOCK_SetFeeMode
                0x00006990       0x84 ./drivers/fsl_clock.o
                0x00006990                CLOCK_SetFeeMode
 .text.SDK_DelayAtLeastUs
                0x00006a14       0x20 ./drivers/fsl_common.o
                0x00006a14                SDK_DelayAtLeastUs
 .text.DSPI_CommonIRQHandler
                0x00006a34       0x20 ./drivers/fsl_dspi.o
 .text.SPI0_DriverIRQHandler
                0x00006a54       0x14 ./drivers/fsl_dspi.o
                0x00006a54                SPI0_DriverIRQHandler
 .text.SPI1_DriverIRQHandler
                0x00006a68       0x14 ./drivers/fsl_dspi.o
                0x00006a68                SPI1_DriverIRQHandler
 .text.FTM_Init
                0x00006a7c      0x200 ./drivers/fsl_ftm.o
                0x00006a7c                FTM_Init
 .text.FTM_SetupPwm
                0x00006c7c      0x164 ./drivers/fsl_ftm.o
                0x00006c7c                FTM_SetupPwm
 .text.I2C_TransferCommonIRQHandler
                0x00006de0       0x28 ./drivers/fsl_i2c.o
 .text.I2C0_DriverIRQHandler
                0x00006e08       0x14 ./drivers/fsl_i2c.o
                0x00006e08                I2C0_DriverIRQHandler
 .text.I2C1_DriverIRQHandler
                0x00006e1c       0x14 ./drivers/fsl_i2c.o
                0x00006e1c                I2C1_DriverIRQHandler
 .text.PIT_Init
                0x00006e30       0x48 ./drivers/fsl_pit.o
                0x00006e30                PIT_Init
 .text.UART_GetInstance
                0x00006e78       0x28 ./drivers/fsl_uart.o
                0x00006e78                UART_GetInstance
 .text.UART_Init
                0x00006ea0       0xf0 ./drivers/fsl_uart.o
                0x00006ea0                UART_Init
 .text.UART2_DriverIRQHandler
                0x00006f90       0x20 ./drivers/fsl_uart.o
                0x00006f90                UART2_DriverIRQHandler
 .text.VREF_Init
                0x00006fb0       0x34 ./drivers/fsl_vref.o
                0x00006fb0                VREF_Init
 .text.SystemCoreClockUpdate
                0x00006fe4      0x160 ./device/system_MK22F51212.o
                0x00006fe4                SystemCoreClockUpdate
 .text.SystemInit
                0x00007144       0x34 ./device/system_MK22F51212.o
                0x00007144                SystemInit
 .text.ADC0_IRQHandler
                0x00007178       0x98 ./board/board.o
                0x00007178                ADC0_IRQHandler
 .text.BOARD_get_ADC
                0x00007210       0x5c ./board/board.o
                0x00007210                BOARD_get_ADC
 .text.BOARD_get_ADC_float
                0x0000726c       0x3c ./board/board.o
                0x0000726c                BOARD_get_ADC_float
 .text.BOARD_InitFTM0
                0x000072a8       0x78 ./board/board.o
                0x000072a8                BOARD_InitFTM0
 .text.BOARD_SetOwnAddress
                0x00007320        0xc ./board/board.o
                0x00007320                BOARD_SetOwnAddress
 .text.BOARD_GetOwnAddress
                0x0000732c        0xc ./board/board.o
                0x0000732c                BOARD_GetOwnAddress
 .text.FTM0_IRQHandler
                0x00007338       0x14 ./board/board.o
                0x00007338                FTM0_IRQHandler
 .text.FTM1_IRQHandler
                0x0000734c       0x10 ./board/board.o
                0x0000734c                FTM1_IRQHandler
 .text.FTM2_IRQHandler
                0x0000735c       0x10 ./board/board.o
                0x0000735c                FTM2_IRQHandler
 .text.PIT0_IRQHandler
                0x0000736c       0x98 ./board/board.o
                0x0000736c                PIT0_IRQHandler
 .text.PIT1_IRQHandler
                0x00007404       0x14 ./board/board.o
                0x00007404                PIT1_IRQHandler
 .text.BOARD_InitPIT
                0x00007418       0x94 ./board/board.o
                0x00007418                BOARD_InitPIT
 .text.BOARD_InitVREF
                0x000074ac       0x10 ./board/board.o
                0x000074ac                BOARD_InitVREF
 .text.BOARD_Init
                0x000074bc      0x200 ./board/board.o
                0x000074bc                BOARD_Init
 .text.BOARD_SetGPIOpin
                0x000076bc       0x2c ./board/board.o
                0x000076bc                BOARD_SetGPIOpin
 .text.BOARD_BootClockRUN
                0x000076e8       0xa8 ./board/clock_config.o
                0x000076e8                BOARD_BootClockRUN
 .text.malloc   0x00007790       0xc8 c:/nxp/mcuxpressoide_11.2.1_4149/ide/plugins/com.nxp.mcuxpresso.tools.win32_11.2.0.202008311134/tools/bin/../lib/gcc/arm-none-eabi/9.2.1/../../../../arm-none-eabi/lib/thumb/v7e-m+fp/hard\libcr_c.a(alloc.o)
                0x00007790                malloc
 .text._Csys_alloc
                0x00007858       0x20 c:/nxp/mcuxpressoide_11.2.1_4149/ide/plugins/com.nxp.mcuxpresso.tools.win32_11.2.0.202008311134/tools/bin/../lib/gcc/arm-none-eabi/9.2.1/../../../../arm-none-eabi/lib/thumb/v7e-m+fp/hard\libcr_c.a(alloc.o)
                0x00007858                _Csys_alloc
 .text._initio  0x00007878       0x78 c:/nxp/mcuxpressoide_11.2.1_4149/ide/plugins/com.nxp.mcuxpresso.tools.win32_11.2.0.202008311134/tools/bin/../lib/gcc/arm-none-eabi/9.2.1/../../../../arm-none-eabi/lib/thumb/v7e-m+fp/hard\libcr_c.a(initio.o)
                0x00007878                _initio
 .text.__vfprintf
                0x000078f0      0xce8 c:/nxp/mcuxpressoide_11.2.1_4149/ide/plugins/com.nxp.mcuxpresso.tools.win32_11.2.0.202008311134/tools/bin/../lib/gcc/arm-none-eabi/9.2.1/../../../../arm-none-eabi/lib/thumb/v7e-m+fp/hard\libcr_c.a(printf.o)
                0x000078f0                __vfprintf
 .text._vsnprintf
                0x000085d8       0x68 c:/nxp/mcuxpressoide_11.2.1_4149/ide/plugins/com.nxp.mcuxpresso.tools.win32_11.2.0.202008311134/tools/bin/../lib/gcc/arm-none-eabi/9.2.1/../../../../arm-none-eabi/lib/thumb/v7e-m+fp/hard\libcr_c.a(printf.o)
                0x000085d8                _vsnprintf
 .text._printf  0x00008640       0x54 c:/nxp/mcuxpressoide_11.2.1_4149/ide/plugins/com.nxp.mcuxpresso.tools.win32_11.2.0.202008311134/tools/bin/../lib/gcc/arm-none-eabi/9.2.1/../../../../arm-none-eabi/lib/thumb/v7e-m+fp/hard\libcr_c.a(printf.o)
                0x00008640                _printf
 .text._sbrk    0x00008694       0x3c c:/nxp/mcuxpressoide_11.2.1_4149/ide/plugins/com.nxp.mcuxpresso.tools.win32_11.2.0.202008311134/tools/bin/../lib/gcc/arm-none-eabi/9.2.1/../../../../arm-none-eabi/lib/thumb/v7e-m+fp/hard\libcr_c.a(_cr_sbrk.o)
                0x00008694                _sbrk
 .text._Cwritebuf
                0x000086d0       0x6c c:/nxp/mcuxpressoide_11.2.1_4149/ide/plugins/com.nxp.mcuxpresso.tools.win32_11.2.0.202008311134/tools/bin/../lib/gcc/arm-none-eabi/9.2.1/../../../../arm-none-eabi/lib/thumb/v7e-m+fp/hard\libcr_c.a(_writebuf.o)
                0x000086d0                _Cwritebuf
 .text.fflush   0x0000873c       0x44 c:/nxp/mcuxpressoide_11.2.1_4149/ide/plugins/com.nxp.mcuxpresso.tools.win32_11.2.0.202008311134/tools/bin/../lib/gcc/arm-none-eabi/9.2.1/../../../../arm-none-eabi/lib/thumb/v7e-m+fp/hard\libcr_c.a(fflush.o)
                0x0000873c                fflush
 .text.fseek    0x00008780      0x100 c:/nxp/mcuxpressoide_11.2.1_4149/ide/plugins/com.nxp.mcuxpresso.tools.win32_11.2.0.202008311134/tools/bin/../lib/gcc/arm-none-eabi/9.2.1/../../../../arm-none-eabi/lib/thumb/v7e-m+fp/hard\libcr_c.a(fseek.o)
                0x00008780                fseek
 .text.ftell    0x00008880       0x44 c:/nxp/mcuxpressoide_11.2.1_4149/ide/plugins/com.nxp.mcuxpresso.tools.win32_11.2.0.202008311134/tools/bin/../lib/gcc/arm-none-eabi/9.2.1/../../../../arm-none-eabi/lib/thumb/v7e-m+fp/hard\libcr_c.a(ftell.o)
                0x00008880                ftell
 .text.__check_heap_overflow
                0x000088c4       0x18 c:/nxp/mcuxpressoide_11.2.1_4149/ide/plugins/com.nxp.mcuxpresso.tools.win32_11.2.0.202008311134/tools/bin/../lib/gcc/arm-none-eabi/9.2.1/../../../../arm-none-eabi/lib/thumb/v7e-m+fp/hard\libcr_c.a(_cr_check_heap.o)
                0x000088c4                __check_heap_overflow
 .text.__aeabi_dsub
                0x000088dc      0x1b0 c:/nxp/mcuxpressoide_11.2.1_4149/ide/plugins/com.nxp.mcuxpresso.tools.win32_11.2.0.202008311134/tools/bin/../lib/gcc/arm-none-eabi/9.2.1/thumb/v7e-m+fp/hard\libcr_eabihelpers.a(double.o)
                0x000088dc                __aeabi_dsub
 .text.__aeabi_dadd
                0x00008a8c      0x114 c:/nxp/mcuxpressoide_11.2.1_4149/ide/plugins/com.nxp.mcuxpresso.tools.win32_11.2.0.202008311134/tools/bin/../lib/gcc/arm-none-eabi/9.2.1/thumb/v7e-m+fp/hard\libcr_eabihelpers.a(double.o)
                0x00008a8c                __aeabi_dadd
 .text.__aeabi_f2d
                0x00008ba0       0x38 c:/nxp/mcuxpressoide_11.2.1_4149/ide/plugins/com.nxp.mcuxpresso.tools.win32_11.2.0.202008311134/tools/bin/../lib/gcc/arm-none-eabi/9.2.1/thumb/v7e-m+fp/hard\libcr_eabihelpers.a(float.o)
                0x00008ba0                __aeabi_f2d
 .text.__sys_appexit
                0x00008bd8        0xc c:/nxp/mcuxpressoide_11.2.1_4149/ide/plugins/com.nxp.mcuxpresso.tools.win32_11.2.0.202008311134/tools/bin/../lib/gcc/arm-none-eabi/9.2.1/../../../../arm-none-eabi/lib/thumb/v7e-m+fp/hard\libcr_semihost_nf.a(__sys_appexit.o)
                0x00008bd8                __sys_appexit
                0x00008bd8                __exit
 .text.USB_DeviceKhciSetDefaultState
                0x00008be4       0x90 ./usb/device/source/khci/usb_device_khci.o
 .text.USB_DeviceKhciPrimeNextSetup
                0x00008c74       0x34 ./usb/device/source/khci/usb_device_khci.o
 .text.USB_DeviceKhciDeinit
                0x00008ca8       0x2a ./usb/device/source/khci/usb_device_khci.o
                0x00008ca8                USB_DeviceKhciDeinit
 .text.USB_DeviceKhciSend
                0x00008cd2       0x86 ./usb/device/source/khci/usb_device_khci.o
                0x00008cd2                USB_DeviceKhciSend
 .text.USB_DeviceKhciRecv
                0x00008d58       0x9c ./usb/device/source/khci/usb_device_khci.o
                0x00008d58                USB_DeviceKhciRecv
 .text.USB_DeviceKhciCancel
                0x00008df4       0x4a ./usb/device/source/khci/usb_device_khci.o
                0x00008df4                USB_DeviceKhciCancel
 .text.USB_DeviceKhciEndpointUnstall
                0x00008e3e       0x8a ./usb/device/source/khci/usb_device_khci.o
 .text.USB_DeviceKhciEndpointDeinit
                0x00008ec8       0x2a ./usb/device/source/khci/usb_device_khci.o
 .text.USB_DeviceKhciControl
                0x00008ef2      0x1fa ./usb/device/source/khci/usb_device_khci.o
                0x00008ef2                USB_DeviceKhciControl
 .text.USB_DeviceKhciIsrFunction
                0x000090ec      0x2c0 ./usb/device/source/khci/usb_device_khci.o
                0x000090ec                USB_DeviceKhciIsrFunction
 .text.USB_DeviceCh9GetStatus
                0x000093ac       0x98 ./usb/device/source/usb_device_ch9.o
 .text.USB_DeviceCh9GetDescriptor
                0x00009444       0x86 ./usb/device/source/usb_device_ch9.o
 .text.USB_DeviceCh9SetAddress
                0x000094ca       0x5a ./usb/device/source/usb_device_ch9.o
 .text.USB_DeviceCh9SetClearFeature
                0x00009524       0x8c ./usb/device/source/usb_device_ch9.o
 .text.USB_DeviceCh9SynchFrame
                0x000095b0       0x42 ./usb/device/source/usb_device_ch9.o
 .text.USB_DeviceCh9SetInterface
                0x000095f2       0x48 ./usb/device/source/usb_device_ch9.o
 .text.USB_DeviceCh9GetInterface
                0x0000963a       0x42 ./usb/device/source/usb_device_ch9.o
 .text.USB_DeviceCh9GetConfiguration
                0x0000967c       0x3c ./usb/device/source/usb_device_ch9.o
 .text.USB_DeviceCh9SetConfiguration
                0x000096b8       0x64 ./usb/device/source/usb_device_ch9.o
 .text.USB_DeviceControlCallbackFeedback
                0x0000971c       0x68 ./usb/device/source/usb_device_ch9.o
 .text.USB_DeviceControl
                0x00009784       0x14 ./usb/device/source/usb_device_dci.o
 .text.USB_DeviceTransfer
                0x00009798       0x76 ./usb/device/source/usb_device_dci.o
 .text.USB_DeviceNotificationTrigger
                0x0000980e       0xa8 ./usb/device/source/usb_device_dci.o
                0x0000980e                USB_DeviceNotificationTrigger
 .text.USB_DeviceRun
                0x000098b6        0x8 ./usb/device/source/usb_device_dci.o
                0x000098b6                USB_DeviceRun
 .text.USB_DeviceDeinit
                0x000098be       0x32 ./usb/device/source/usb_device_dci.o
                0x000098be                USB_DeviceDeinit
 .text.USB_DeviceSendRequest
                0x000098f0        0xc ./usb/device/source/usb_device_dci.o
                0x000098f0                USB_DeviceSendRequest
 .text.USB_DeviceRecvRequest
                0x000098fc        0x8 ./usb/device/source/usb_device_dci.o
                0x000098fc                USB_DeviceRecvRequest
 .text.USB_DeviceInitEndpoint
                0x00009904       0x3e ./usb/device/source/usb_device_dci.o
                0x00009904                USB_DeviceInitEndpoint
 .text.USB_DeviceDeinitEndpoint
                0x00009942       0x3e ./usb/device/source/usb_device_dci.o
                0x00009942                USB_DeviceDeinitEndpoint
 .text.USB_DeviceStallEndpoint
                0x00009980       0x20 ./usb/device/source/usb_device_dci.o
                0x00009980                USB_DeviceStallEndpoint
 .text.USB_DeviceUnstallEndpoint
                0x000099a0       0x20 ./usb/device/source/usb_device_dci.o
                0x000099a0                USB_DeviceUnstallEndpoint
 .text.USB_DeviceGetStatus
                0x000099c0       0x42 ./usb/device/source/usb_device_dci.o
                0x000099c0                USB_DeviceGetStatus
 .text.USB_DeviceSetStatus
                0x00009a02       0x62 ./usb/device/source/usb_device_dci.o
                0x00009a02                USB_DeviceSetStatus
 .text.USB_DeviceCdcAcmInterruptIn
                0x00009a64       0x20 ./usb/device/class/cdc/usb_device_cdc_acm.o
 .text.USB_DeviceCdcAcmBulkIn
                0x00009a84       0x20 ./usb/device/class/cdc/usb_device_cdc_acm.o
 .text.USB_DeviceCdcAcmBulkOut
                0x00009aa4       0x20 ./usb/device/class/cdc/usb_device_cdc_acm.o
 .text.USB_DeviceCdcAcmEndpointsDeinit
                0x00009ac4       0x56 ./usb/device/class/cdc/usb_device_cdc_acm.o
 .text.USB_DeviceCdcAcmEvent
                0x00009b1a      0x2fa ./usb/device/class/cdc/usb_device_cdc_acm.o
                0x00009b1a                USB_DeviceCdcAcmEvent
 .text.USB_DeviceCdcAcmDeinit
                0x00009e14       0x32 ./usb/device/class/cdc/usb_device_cdc_acm.o
                0x00009e14                USB_DeviceCdcAcmDeinit
 .text.USB_DeviceCdcAcmSend
                0x00009e46       0x4e ./usb/device/class/cdc/usb_device_cdc_acm.o
                0x00009e46                USB_DeviceCdcAcmSend
 .text.USB_DeviceCdcAcmRecv
                0x00009e94       0x3a ./usb/device/class/cdc/usb_device_cdc_acm.o
                0x00009e94                USB_DeviceCdcAcmRecv
 .text.USB_DeviceClassCallback
                0x00009ece       0x38 ./usb/device/class/usb_device_class.o
                0x00009ece                USB_DeviceClassCallback
 .text.DMA0_IRQHandler
                0x00009f06        0x8 ./startup/startup_mk22f51212.o
                0x00009f06                DMA0_IRQHandler
 .text.DMA1_IRQHandler
                0x00009f0e        0x8 ./startup/startup_mk22f51212.o
                0x00009f0e                DMA1_IRQHandler
 .text.DMA2_IRQHandler
                0x00009f16        0x8 ./startup/startup_mk22f51212.o
                0x00009f16                DMA2_IRQHandler
 .text.DMA3_IRQHandler
                0x00009f1e        0x8 ./startup/startup_mk22f51212.o
                0x00009f1e                DMA3_IRQHandler
 .text.DMA4_IRQHandler
                0x00009f26        0x8 ./startup/startup_mk22f51212.o
                0x00009f26                DMA4_IRQHandler
 .text.DMA5_IRQHandler
                0x00009f2e        0x8 ./startup/startup_mk22f51212.o
                0x00009f2e                DMA5_IRQHandler
 .text.DMA6_IRQHandler
                0x00009f36        0x8 ./startup/startup_mk22f51212.o
                0x00009f36                DMA6_IRQHandler
 .text.DMA7_IRQHandler
                0x00009f3e        0x8 ./startup/startup_mk22f51212.o
                0x00009f3e                DMA7_IRQHandler
 .text.DMA8_IRQHandler
                0x00009f46        0x8 ./startup/startup_mk22f51212.o
                0x00009f46                DMA8_IRQHandler
 .text.DMA9_IRQHandler
                0x00009f4e        0x8 ./startup/startup_mk22f51212.o
                0x00009f4e                DMA9_IRQHandler
 .text.DMA10_IRQHandler
                0x00009f56        0x8 ./startup/startup_mk22f51212.o
                0x00009f56                DMA10_IRQHandler
 .text.DMA11_IRQHandler
                0x00009f5e        0x8 ./startup/startup_mk22f51212.o
                0x00009f5e                DMA11_IRQHandler
 .text.DMA12_IRQHandler
                0x00009f66        0x8 ./startup/startup_mk22f51212.o
                0x00009f66                DMA12_IRQHandler
 .text.DMA13_IRQHandler
                0x00009f6e        0x8 ./startup/startup_mk22f51212.o
                0x00009f6e                DMA13_IRQHandler
 .text.DMA14_IRQHandler
                0x00009f76        0x8 ./startup/startup_mk22f51212.o
                0x00009f76                DMA14_IRQHandler
 .text.DMA15_IRQHandler
                0x00009f7e        0x8 ./startup/startup_mk22f51212.o
                0x00009f7e                DMA15_IRQHandler
 .text.DMA_Error_IRQHandler
                0x00009f86        0x8 ./startup/startup_mk22f51212.o
                0x00009f86                DMA_Error_IRQHandler
 .text.MCM_IRQHandler
                0x00009f8e        0x8 ./startup/startup_mk22f51212.o
                0x00009f8e                MCM_IRQHandler
 .text.FTF_IRQHandler
                0x00009f96        0x8 ./startup/startup_mk22f51212.o
                0x00009f96                FTF_IRQHandler
 .text.Read_Collision_IRQHandler
                0x00009f9e        0x8 ./startup/startup_mk22f51212.o
                0x00009f9e                Read_Collision_IRQHandler
 .text.LVD_LVW_IRQHandler
                0x00009fa6        0x8 ./startup/startup_mk22f51212.o
                0x00009fa6                LVD_LVW_IRQHandler
 .text.LLWU_IRQHandler
                0x00009fae        0x8 ./startup/startup_mk22f51212.o
                0x00009fae                LLWU_IRQHandler
 .text.WDOG_EWM_IRQHandler
                0x00009fb6        0x8 ./startup/startup_mk22f51212.o
                0x00009fb6                WDOG_EWM_IRQHandler
 .text.RNG_IRQHandler
                0x00009fbe        0x8 ./startup/startup_mk22f51212.o
                0x00009fbe                RNG_IRQHandler
 .text.I2C0_IRQHandler
                0x00009fc6        0x8 ./startup/startup_mk22f51212.o
                0x00009fc6                I2C0_IRQHandler
 .text.I2C1_IRQHandler
                0x00009fce        0x8 ./startup/startup_mk22f51212.o
                0x00009fce                I2C1_IRQHandler
 .text.SPI0_IRQHandler
                0x00009fd6        0x8 ./startup/startup_mk22f51212.o
                0x00009fd6                SPI0_IRQHandler
 .text.SPI1_IRQHandler
                0x00009fde        0x8 ./startup/startup_mk22f51212.o
                0x00009fde                SPI1_IRQHandler
 .text.I2S0_Tx_IRQHandler
                0x00009fe6        0x8 ./startup/startup_mk22f51212.o
                0x00009fe6                I2S0_Tx_IRQHandler
 .text.I2S0_Rx_IRQHandler
                0x00009fee        0x8 ./startup/startup_mk22f51212.o
                0x00009fee                I2S0_Rx_IRQHandler
 .text.LPUART0_IRQHandler
                0x00009ff6        0x8 ./startup/startup_mk22f51212.o
                0x00009ff6                LPUART0_IRQHandler
 .text.UART0_RX_TX_IRQHandler
                0x00009ffe        0x8 ./startup/startup_mk22f51212.o
                0x00009ffe                UART0_RX_TX_IRQHandler
 .text.UART0_ERR_IRQHandler
                0x0000a006        0x8 ./startup/startup_mk22f51212.o
                0x0000a006                UART0_ERR_IRQHandler
 .text.UART1_RX_TX_IRQHandler
                0x0000a00e        0x8 ./startup/startup_mk22f51212.o
                0x0000a00e                UART1_RX_TX_IRQHandler
 .text.UART1_ERR_IRQHandler
                0x0000a016        0x8 ./startup/startup_mk22f51212.o
                0x0000a016                UART1_ERR_IRQHandler
 .text.UART2_RX_TX_IRQHandler
                0x0000a01e        0x8 ./startup/startup_mk22f51212.o
                0x0000a01e                UART2_RX_TX_IRQHandler
 .text.UART2_ERR_IRQHandler
                0x0000a026        0x8 ./startup/startup_mk22f51212.o
                0x0000a026                UART2_ERR_IRQHandler
 .text.Reserved53_IRQHandler
                0x0000a02e        0x8 ./startup/startup_mk22f51212.o
                0x0000a02e                Reserved53_IRQHandler
 .text.Reserved54_IRQHandler
                0x0000a036        0x8 ./startup/startup_mk22f51212.o
                0x0000a036                Reserved54_IRQHandler
 .text.CMP0_IRQHandler
                0x0000a03e        0x8 ./startup/startup_mk22f51212.o
                0x0000a03e                CMP0_IRQHandler
 .text.CMP1_IRQHandler
                0x0000a046        0x8 ./startup/startup_mk22f51212.o
                0x0000a046                CMP1_IRQHandler
 .text.Reserved61_IRQHandler
                0x0000a04e        0x8 ./startup/startup_mk22f51212.o
                0x0000a04e                Reserved61_IRQHandler
 .text.RTC_IRQHandler
                0x0000a056        0x8 ./startup/startup_mk22f51212.o
                0x0000a056                RTC_IRQHandler
 .text.RTC_Seconds_IRQHandler
                0x0000a05e        0x8 ./startup/startup_mk22f51212.o
                0x0000a05e                RTC_Seconds_IRQHandler
 .text.PIT2_IRQHandler
                0x0000a066        0x8 ./startup/startup_mk22f51212.o
                0x0000a066                PIT2_IRQHandler
 .text.PIT3_IRQHandler
                0x0000a06e        0x8 ./startup/startup_mk22f51212.o
                0x0000a06e                PIT3_IRQHandler
 .text.PDB0_IRQHandler
                0x0000a076        0x8 ./startup/startup_mk22f51212.o
                0x0000a076                PDB0_IRQHandler
 .text.Reserved70_IRQHandler
                0x0000a07e        0x8 ./startup/startup_mk22f51212.o
                0x0000a07e                Reserved70_IRQHandler
 .text.Reserved71_IRQHandler
                0x0000a086        0x8 ./startup/startup_mk22f51212.o
                0x0000a086                Reserved71_IRQHandler
 .text.DAC0_IRQHandler
                0x0000a08e        0x8 ./startup/startup_mk22f51212.o
                0x0000a08e                DAC0_IRQHandler
 .text.MCG_IRQHandler
                0x0000a096        0x8 ./startup/startup_mk22f51212.o
                0x0000a096                MCG_IRQHandler
 .text.LPTMR0_IRQHandler
                0x0000a09e        0x8 ./startup/startup_mk22f51212.o
                0x0000a09e                LPTMR0_IRQHandler
 .text.PORTA_IRQHandler
                0x0000a0a6        0x8 ./startup/startup_mk22f51212.o
                0x0000a0a6                PORTA_IRQHandler
 .text.PORTB_IRQHandler
                0x0000a0ae        0x8 ./startup/startup_mk22f51212.o
                0x0000a0ae                PORTB_IRQHandler
 .text.PORTC_IRQHandler
                0x0000a0b6        0x8 ./startup/startup_mk22f51212.o
                0x0000a0b6                PORTC_IRQHandler
 .text.PORTD_IRQHandler
                0x0000a0be        0x8 ./startup/startup_mk22f51212.o
                0x0000a0be                PORTD_IRQHandler
 .text.PORTE_IRQHandler
                0x0000a0c6        0x8 ./startup/startup_mk22f51212.o
                0x0000a0c6                PORTE_IRQHandler
 .text.SWI_IRQHandler
                0x0000a0ce        0x8 ./startup/startup_mk22f51212.o
                0x0000a0ce                SWI_IRQHandler
 .text.Reserved81_IRQHandler
                0x0000a0d6        0x8 ./startup/startup_mk22f51212.o
                0x0000a0d6                Reserved81_IRQHandler
 .text.Reserved82_IRQHandler
                0x0000a0de        0x8 ./startup/startup_mk22f51212.o
                0x0000a0de                Reserved82_IRQHandler
 .text.Reserved83_IRQHandler
                0x0000a0e6        0x8 ./startup/startup_mk22f51212.o
                0x0000a0e6                Reserved83_IRQHandler
 .text.Reserved84_IRQHandler
                0x0000a0ee        0x8 ./startup/startup_mk22f51212.o
                0x0000a0ee                Reserved84_IRQHandler
 .text.Reserved85_IRQHandler
                0x0000a0f6        0x8 ./startup/startup_mk22f51212.o
                0x0000a0f6                Reserved85_IRQHandler
 .text.Reserved86_IRQHandler
                0x0000a0fe        0x8 ./startup/startup_mk22f51212.o
                0x0000a0fe                Reserved86_IRQHandler
 .text.FTM3_IRQHandler
                0x0000a106        0x8 ./startup/startup_mk22f51212.o
                0x0000a106                FTM3_IRQHandler
 .text.DAC1_IRQHandler
                0x0000a10e        0x8 ./startup/startup_mk22f51212.o
                0x0000a10e                DAC1_IRQHandler
 .text.ADC1_IRQHandler
                0x0000a116        0x8 ./startup/startup_mk22f51212.o
                0x0000a116                ADC1_IRQHandler
 .text.USB_SendPacketCMD
                0x0000a11e       0x88 ./source/usb/virtual_com.o
                0x0000a11e                USB_SendPacketCMD
 .text._GetAvailWriteSpace
                0x0000a1a6       0x1c ./source/Tracealyzer/streamports/Jlink_RTT/SEGGER_RTT.o
 .text._WriteNoCheck
                0x0000a1c2       0x38 ./source/Tracealyzer/streamports/Jlink_RTT/SEGGER_RTT.o
 .text._WriteBlocking
                0x0000a1fa       0x52 ./source/Tracealyzer/streamports/Jlink_RTT/SEGGER_RTT.o
 .text.SEGGER_RTT_Read
                0x0000a24c       0x1c ./source/Tracealyzer/streamports/Jlink_RTT/SEGGER_RTT.o
                0x0000a24c                SEGGER_RTT_Read
 .text.writeToRTT
                0x0000a268       0x16 ./source/Tracealyzer/streamports/Jlink_RTT/trcStreamingPort.o
                0x0000a268                writeToRTT
 .text.prvTraceGetTaskNumberHigh16
                0x0000a27e        0xa ./source/Tracealyzer/trcKernelPort.o
                0x0000a27e                prvTraceGetTaskNumberHigh16
 .text.prvTraceSetTaskNumberHigh16
                0x0000a288       0x1a ./source/Tracealyzer/trcKernelPort.o
                0x0000a288                prvTraceSetTaskNumberHigh16
 .text.prvTraceGetQueueNumberHigh16
                0x0000a2a2        0xa ./source/Tracealyzer/trcKernelPort.o
                0x0000a2a2                prvTraceGetQueueNumberHigh16
 .text.prvTraceSetQueueNumberHigh16
                0x0000a2ac       0x1a ./source/Tracealyzer/trcKernelPort.o
                0x0000a2ac                prvTraceSetQueueNumberHigh16
 .text.prvTraceGetCurrentTaskHandle
                0x0000a2c6        0x4 ./source/Tracealyzer/trcKernelPort.o
                0x0000a2c6                prvTraceGetCurrentTaskHandle
 .text.prvIsValidCommand
                0x0000a2ca       0x3c ./source/Tracealyzer/trcStreamingRecorder.o
                0x0000a2ca                prvIsValidCommand
 .text.vTraceStop
                0x0000a306        0x6 ./source/Tracealyzer/trcStreamingRecorder.o
                0x0000a306                vTraceStop
 .text.prvTraceStoreStringEvent
                0x0000a30c       0x2c ./source/Tracealyzer/trcStreamingRecorder.o
                0x0000a30c                prvTraceStoreStringEvent
 .text.xTraceRegisterString
                0x0000a338       0x1c ./source/Tracealyzer/trcStreamingRecorder.o
                0x0000a338                xTraceRegisterString
 .text.prvProcessCommand
                0x0000a354        0xe ./source/Tracealyzer/trcStreamingRecorder.o
                0x0000a354                prvProcessCommand
 .text.vTraceVPrintF
                0x0000a362       0x52 ./source/Tracealyzer/trcStreamingRecorder.o
                0x0000a362                vTraceVPrintF
 .text.vTracePrintF
                0x0000a3b4       0x1a ./source/Tracealyzer/trcStreamingRecorder.o
                0x0000a3b4                vTracePrintF
 .text.CommunicationTask
                0x0000a3ce       0x2c ./source/BRDUINO_Nano.o
                0x0000a3ce                CommunicationTask
 .text.SUB_GetSystemInfo
                0x0000a3fa       0x3a ./source/CmdInfo.o
                0x0000a3fa                SUB_GetSystemInfo
 .text.InfoCommandHandler
                0x0000a434       0x1c ./source/CmdInfo.o
                0x0000a434                InfoCommandHandler
 .text.cmd_SUB_SYS_REQUEST_PING
                0x0000a450       0x46 ./source/CmdSystem.o
                0x0000a450                cmd_SUB_SYS_REQUEST_PING
 .text.cmd_SUB_SYS_GET_ADC_VALUE
                0x0000a496       0x4e ./source/CmdSystem.o
                0x0000a496                cmd_SUB_SYS_GET_ADC_VALUE
 .text.cmd_SUB_SYS_GET_ALL_ADC_VALUES
                0x0000a4e4       0x5c ./source/CmdSystem.o
                0x0000a4e4                cmd_SUB_SYS_GET_ALL_ADC_VALUES
 .text.cmd_SUB_SYS_GET_ALL_ADC_VAL_FLOAT
                0x0000a540       0x5a ./source/CmdSystem.o
                0x0000a540                cmd_SUB_SYS_GET_ALL_ADC_VAL_FLOAT
 .text.cmd_SUB_SYS_GET_DEVICE_TYPE
                0x0000a59a       0x36 ./source/CmdSystem.o
                0x0000a59a                cmd_SUB_SYS_GET_DEVICE_TYPE
 .text.cmd_SUB_SYS_SET_DEVICE_OWN_ADDR
                0x0000a5d0       0x3e ./source/CmdSystem.o
                0x0000a5d0                cmd_SUB_SYS_SET_DEVICE_OWN_ADDR
 .text.SystemCommandHandler
                0x0000a60e       0x9e ./source/CmdSystem.o
                0x0000a60e                SystemCommandHandler
 .text.SetVal_16
                0x0000a6ac        0x8 ./source/Misc.o
                0x0000a6ac                SetVal_16
 .text.SetVal_32
                0x0000a6b4       0x10 ./source/Misc.o
                0x0000a6b4                SetVal_32
 .text.SetVal_Float
                0x0000a6c4        0x8 ./source/Misc.o
                0x0000a6c4                SetVal_Float
 .text.MakeCommandHeader
                0x0000a6cc       0x1a ./source/Misc.o
                0x0000a6cc                MakeCommandHeader
 .text.GetSystemDeviceType
                0x0000a6e6        0x4 ./source/System.o
                0x0000a6e6                GetSystemDeviceType
 .text.HardFault_Handler
                0x0000a6ea       0x2a ./source/semihost_hardfault.o
                0x0000a6ea                HardFault_Handler
 .text.UART0_RX_TX_DriverIRQHandler
                0x0000a714        0x6 ./source/uart.o
                0x0000a714                UART0_RX_TX_DriverIRQHandler
 .text.UART1_RX_TX_DriverIRQHandler
                0x0000a71a        0x6 ./source/uart.o
                0x0000a71a                UART1_RX_TX_DriverIRQHandler
 .text.set_rs485_data_enable
                0x0000a720       0x20 ./source/uart.o
                0x0000a720                set_rs485_data_enable
 .text.clr_rs485_data_enable
                0x0000a740       0x22 ./source/uart.o
                0x0000a740                clr_rs485_data_enable
 .text.wait_rs485_tx_done
                0x0000a762        0xc ./source/uart.o
                0x0000a762                wait_rs485_tx_done
 .text.vListInitialise
                0x0000a76e       0x16 ./freertos/freertos_kernel/list.o
                0x0000a76e                vListInitialise
 .text.vListInitialiseItem
                0x0000a784        0x6 ./freertos/freertos_kernel/list.o
                0x0000a784                vListInitialiseItem
 .text.vListInsertEnd
                0x0000a78a       0x18 ./freertos/freertos_kernel/list.o
                0x0000a78a                vListInsertEnd
 .text.vListInsert
                0x0000a7a2       0x2e ./freertos/freertos_kernel/list.o
                0x0000a7a2                vListInsert
 .text.uxListRemove
                0x0000a7d0       0x20 ./freertos/freertos_kernel/list.o
                0x0000a7d0                uxListRemove
 .text.prvIsQueueEmpty
                0x0000a7f0       0x16 ./freertos/freertos_kernel/queue.o
 .text.prvCopyDataToQueue
                0x0000a806       0x6a ./freertos/freertos_kernel/queue.o
 .text.prvCopyDataFromQueue
                0x0000a870       0x2c ./freertos/freertos_kernel/queue.o
 .text.prvUnlockQueue
                0x0000a89c       0x70 ./freertos/freertos_kernel/queue.o
 .text.xQueueCreateMutex
                0x0000a90c       0x24 ./freertos/freertos_kernel/queue.o
                0x0000a90c                xQueueCreateMutex
 .text.uxQueueGetQueueNumber
                0x0000a930        0x4 ./freertos/freertos_kernel/queue.o
                0x0000a930                uxQueueGetQueueNumber
 .text.vQueueSetQueueNumber
                0x0000a934        0x4 ./freertos/freertos_kernel/queue.o
                0x0000a934                vQueueSetQueueNumber
 .text.vQueueWaitForMessageRestricted
                0x0000a938       0x46 ./freertos/freertos_kernel/queue.o
                0x0000a938                vQueueWaitForMessageRestricted
 .text.uxTaskGetTaskNumber
                0x0000a97e        0x6 ./freertos/freertos_kernel/tasks.o
                0x0000a97e                uxTaskGetTaskNumber
 .text.vTaskSetTaskNumber
                0x0000a984        0x6 ./freertos/freertos_kernel/tasks.o
                0x0000a984                vTaskSetTaskNumber
 .text.ADC16_SetChannelMuxMode
                0x0000a98a       0x12 ./drivers/fsl_adc16.o
                0x0000a98a                ADC16_SetChannelMuxMode
 .text.ADC16_GetStatusFlags
                0x0000a99c       0x14 ./drivers/fsl_adc16.o
                0x0000a99c                ADC16_GetStatusFlags
 .text.ADC16_DoAutoCalibration
                0x0000a9b0       0x92 ./drivers/fsl_adc16.o
                0x0000a9b0                ADC16_DoAutoCalibration
 .text.ADC16_SetChannelConfig
                0x0000aa42       0x1e ./drivers/fsl_adc16.o
                0x0000aa42                ADC16_SetChannelConfig
 .text.CLOCK_BootToFeeMode
                0x0000aa60       0x22 ./drivers/fsl_clock.o
                0x0000aa60                CLOCK_BootToFeeMode
 .text.FTM_GetDefaultConfig
                0x0000aa82       0x26 ./drivers/fsl_ftm.o
                0x0000aa82                FTM_GetDefaultConfig
 .text.FTM_UpdateChnlEdgeLevelSelect
                0x0000aaa8       0x16 ./drivers/fsl_ftm.o
                0x0000aaa8                FTM_UpdateChnlEdgeLevelSelect
 .text.GPIO_PinInit
                0x0000aabe       0x24 ./drivers/fsl_gpio.o
                0x0000aabe                GPIO_PinInit
 .text.UART_EnableInterrupts
                0x0000aae2       0x36 ./drivers/fsl_uart.o
                0x0000aae2                UART_EnableInterrupts
 .text.UART2_RX_TX_DriverIRQHandler
                0x0000ab18        0xc ./drivers/fsl_uart.o
                0x0000ab18                UART2_RX_TX_DriverIRQHandler
 .text.SystemInitHook
                0x0000ab24        0x2 ./device/system_MK22F51212.o
                0x0000ab24                SystemInitHook
 .text.OSA_EnterCritical
                0x0000ab26       0x22 ./component/osa/fsl_os_abstraction_free_rtos.o
                0x0000ab26                OSA_EnterCritical
 .text.OSA_ExitCritical
                0x0000ab48       0x10 ./component/osa/fsl_os_abstraction_free_rtos.o
                0x0000ab48                OSA_ExitCritical
 .text.OSA_MutexCreate
                0x0000ab58       0x18 ./component/osa/fsl_os_abstraction_free_rtos.o
                0x0000ab58                OSA_MutexCreate
 .text.OSA_MutexDestroy
                0x0000ab70        0xc ./component/osa/fsl_os_abstraction_free_rtos.o
                0x0000ab70                OSA_MutexDestroy
 .text.CLOCK_EnableClock
                0x0000ab7c       0x1a ./board/board.o
 .text.CLOCK_CONFIG_FllStableDelay
                0x0000ab96        0xe ./board/clock_config.o
 .text.BOARD_InitBootClocks
                0x0000aba4        0x4 ./board/clock_config.o
                0x0000aba4                BOARD_InitBootClocks
 .text.BOARD_InitBootPeripherals
                0x0000aba8        0x2 ./board/peripherals.o
                0x0000aba8                BOARD_InitBootPeripherals
 .text.BOARD_InitBootPins
                0x0000abaa        0x2 ./board/pin_mux.o
                0x0000abaa                BOARD_InitBootPins
 .text.__main   0x0000abac        0xe c:/nxp/mcuxpressoide_11.2.1_4149/ide/plugins/com.nxp.mcuxpresso.tools.win32_11.2.0.202008311134/tools/bin/../lib/gcc/arm-none-eabi/9.2.1/../../../../arm-none-eabi/lib/thumb/v7e-m+fp/hard\libcr_semihost_nf.a(_cr__main.o)
                0x0000abac                __CR_SEMIHOST
                0x0000abac                __main
 .text.memcpy   0x0000abba        0x4 c:/nxp/mcuxpressoide_11.2.1_4149/ide/plugins/com.nxp.mcuxpresso.tools.win32_11.2.0.202008311134/tools/bin/../lib/gcc/arm-none-eabi/9.2.1/../../../../arm-none-eabi/lib/thumb/v7e-m+fp/hard\libcr_c.a(memcpy.o)
                0x0000abba                memcpy
 .text.memset   0x0000abbe        0x4 c:/nxp/mcuxpressoide_11.2.1_4149/ide/plugins/com.nxp.mcuxpresso.tools.win32_11.2.0.202008311134/tools/bin/../lib/gcc/arm-none-eabi/9.2.1/../../../../arm-none-eabi/lib/thumb/v7e-m+fp/hard\libcr_c.a(memset.o)
                0x0000abbe                memset
 .text.free     0x0000abc2       0x30 c:/nxp/mcuxpressoide_11.2.1_4149/ide/plugins/com.nxp.mcuxpresso.tools.win32_11.2.0.202008311134/tools/bin/../lib/gcc/arm-none-eabi/9.2.1/../../../../arm-none-eabi/lib/thumb/v7e-m+fp/hard\libcr_c.a(alloc.o)
                0x0000abc2                free
 .text.no_fp_display
                0x0000abf2        0x4 c:/nxp/mcuxpressoide_11.2.1_4149/ide/plugins/com.nxp.mcuxpresso.tools.win32_11.2.0.202008311134/tools/bin/../lib/gcc/arm-none-eabi/9.2.1/../../../../arm-none-eabi/lib/thumb/v7e-m+fp/hard\libcr_c.a(printf.o)
 .text.setvbuf  0x0000abf6       0x3e c:/nxp/mcuxpressoide_11.2.1_4149/ide/plugins/com.nxp.mcuxpresso.tools.win32_11.2.0.202008311134/tools/bin/../lib/gcc/arm-none-eabi/9.2.1/../../../../arm-none-eabi/lib/thumb/v7e-m+fp/hard\libcr_c.a(setvbuf.o)
                0x0000abf6                setvbuf
 .text.strcpy   0x0000ac34       0x42 c:/nxp/mcuxpressoide_11.2.1_4149/ide/plugins/com.nxp.mcuxpresso.tools.win32_11.2.0.202008311134/tools/bin/../lib/gcc/arm-none-eabi/9.2.1/../../../../arm-none-eabi/lib/thumb/v7e-m+fp/hard\libcr_c.a(strcpy.o)
                0x0000ac34                strcpy
 .text.strlen   0x0000ac76       0x4c c:/nxp/mcuxpressoide_11.2.1_4149/ide/plugins/com.nxp.mcuxpresso.tools.win32_11.2.0.202008311134/tools/bin/../lib/gcc/arm-none-eabi/9.2.1/../../../../arm-none-eabi/lib/thumb/v7e-m+fp/hard\libcr_c.a(strlen.o)
                0x0000ac76                strlen
 .text._deferredlazyseek
                0x0000acc2       0x40 c:/nxp/mcuxpressoide_11.2.1_4149/ide/plugins/com.nxp.mcuxpresso.tools.win32_11.2.0.202008311134/tools/bin/../lib/gcc/arm-none-eabi/9.2.1/../../../../arm-none-eabi/lib/thumb/v7e-m+fp/hard\libcr_c.a(_deferredlazyseek.o)
                0x0000acc2                _deferredlazyseek
 .text.__flsbuf
                0x0000ad02      0x140 c:/nxp/mcuxpressoide_11.2.1_4149/ide/plugins/com.nxp.mcuxpresso.tools.win32_11.2.0.202008311134/tools/bin/../lib/gcc/arm-none-eabi/9.2.1/../../../../arm-none-eabi/lib/thumb/v7e-m+fp/hard\libcr_c.a(_deferredlazyseek.o)
                0x0000ad02                __flsbuf
 .text._fdopen  0x0000ae42       0x68 c:/nxp/mcuxpressoide_11.2.1_4149/ide/plugins/com.nxp.mcuxpresso.tools.win32_11.2.0.202008311134/tools/bin/../lib/gcc/arm-none-eabi/9.2.1/../../../../arm-none-eabi/lib/thumb/v7e-m+fp/hard\libcr_c.a(_fdopen.o)
                0x0000ae42                _fdopen
 .text._fflush  0x0000aeaa       0x52 c:/nxp/mcuxpressoide_11.2.1_4149/ide/plugins/com.nxp.mcuxpresso.tools.win32_11.2.0.202008311134/tools/bin/../lib/gcc/arm-none-eabi/9.2.1/../../../../arm-none-eabi/lib/thumb/v7e-m+fp/hard\libcr_c.a(_fflush.o)
                0x0000aeaa                _fflush
 .text.fclose   0x0000aefc       0x58 c:/nxp/mcuxpressoide_11.2.1_4149/ide/plugins/com.nxp.mcuxpresso.tools.win32_11.2.0.202008311134/tools/bin/../lib/gcc/arm-none-eabi/9.2.1/../../../../arm-none-eabi/lib/thumb/v7e-m+fp/hard\libcr_c.a(fclose.o)
                0x0000aefc                fclose
 .text.remove   0x0000af54       0x14 c:/nxp/mcuxpressoide_11.2.1_4149/ide/plugins/com.nxp.mcuxpresso.tools.win32_11.2.0.202008311134/tools/bin/../lib/gcc/arm-none-eabi/9.2.1/../../../../arm-none-eabi/lib/thumb/v7e-m+fp/hard\libcr_c.a(remove.o)
                0x0000af54                remove
 .text._do_fflush
                0x0000af68       0x40 c:/nxp/mcuxpressoide_11.2.1_4149/ide/plugins/com.nxp.mcuxpresso.tools.win32_11.2.0.202008311134/tools/bin/../lib/gcc/arm-none-eabi/9.2.1/../../../../arm-none-eabi/lib/thumb/v7e-m+fp/hard\libcr_c.a(_do_fflush.o)
                0x0000af68                _do_fflush
 .text.__aeabi_division_uldivmod
                0x0000afa8      0x174 c:/nxp/mcuxpressoide_11.2.1_4149/ide/plugins/com.nxp.mcuxpresso.tools.win32_11.2.0.202008311134/tools/bin/../lib/gcc/arm-none-eabi/9.2.1/thumb/v7e-m+fp/hard\libcr_eabihelpers.a(division_64.o)
                0x0000afa8                __aeabi_uldivmod
                0x0000afac                __bhs_ldivmod1
 .text.__aeabi_division_idiv0
                0x0000b11c        0x2 c:/nxp/mcuxpressoide_11.2.1_4149/ide/plugins/com.nxp.mcuxpresso.tools.win32_11.2.0.202008311134/tools/bin/../lib/gcc/arm-none-eabi/9.2.1/thumb/v7e-m+fp/hard\libcr_eabihelpers.a(division_idiv0.o)
                0x0000b11c                __aeabi_idiv0
 .text.__aeabi_d2iz
                0x0000b11e       0x40 c:/nxp/mcuxpressoide_11.2.1_4149/ide/plugins/com.nxp.mcuxpresso.tools.win32_11.2.0.202008311134/tools/bin/../lib/gcc/arm-none-eabi/9.2.1/thumb/v7e-m+fp/hard\libcr_eabihelpers.a(double.o)
                0x0000b11e                __aeabi_d2iz
 .text.__aeabi_memcpy
                0x0000b15e       0x34 c:/nxp/mcuxpressoide_11.2.1_4149/ide/plugins/com.nxp.mcuxpresso.tools.win32_11.2.0.202008311134/tools/bin/../lib/gcc/arm-none-eabi/9.2.1/thumb/v7e-m+fp/hard\libcr_eabihelpers.a(memcpy.o)
                0x0000b15e                __aeabi_memcpy
                0x0000b168                __aeabi_memcpy8
                0x0000b168                __aeabi_memcpy4
 .text.__aeabi_memset_lowlevel
                0x0000b192       0x32 c:/nxp/mcuxpressoide_11.2.1_4149/ide/plugins/com.nxp.mcuxpresso.tools.win32_11.2.0.202008311134/tools/bin/../lib/gcc/arm-none-eabi/9.2.1/thumb/v7e-m+fp/hard\libcr_eabihelpers.a(memcpy.o)
                0x0000b192                __aeabi_lowlevel_memset
 .text.__sys_close
                0x0000b1c4        0xc c:/nxp/mcuxpressoide_11.2.1_4149/ide/plugins/com.nxp.mcuxpresso.tools.win32_11.2.0.202008311134/tools/bin/../lib/gcc/arm-none-eabi/9.2.1/../../../../arm-none-eabi/lib/thumb/v7e-m+fp/hard\libcr_semihost_nf.a(__sys_close.o)
                0x0000b1c4                __sys_close
 .text.__sys_flen
                0x0000b1d0        0xc c:/nxp/mcuxpressoide_11.2.1_4149/ide/plugins/com.nxp.mcuxpresso.tools.win32_11.2.0.202008311134/tools/bin/../lib/gcc/arm-none-eabi/9.2.1/../../../../arm-none-eabi/lib/thumb/v7e-m+fp/hard\libcr_semihost_nf.a(__sys_flen.o)
                0x0000b1d0                __sys_flen
 .text.__sys_istty
                0x0000b1dc        0xc c:/nxp/mcuxpressoide_11.2.1_4149/ide/plugins/com.nxp.mcuxpresso.tools.win32_11.2.0.202008311134/tools/bin/../lib/gcc/arm-none-eabi/9.2.1/../../../../arm-none-eabi/lib/thumb/v7e-m+fp/hard\libcr_semihost_nf.a(__sys_istty.o)
                0x0000b1dc                __sys_istty
 .text.__sys_remove
                0x0000b1e8        0xc c:/nxp/mcuxpressoide_11.2.1_4149/ide/plugins/com.nxp.mcuxpresso.tools.win32_11.2.0.202008311134/tools/bin/../lib/gcc/arm-none-eabi/9.2.1/../../../../arm-none-eabi/lib/thumb/v7e-m+fp/hard\libcr_semihost_nf.a(__sys_remove.o)
                0x0000b1e8                __sys_remove
 .text.__sys_seek
                0x0000b1f4        0xc c:/nxp/mcuxpressoide_11.2.1_4149/ide/plugins/com.nxp.mcuxpresso.tools.win32_11.2.0.202008311134/tools/bin/../lib/gcc/arm-none-eabi/9.2.1/../../../../arm-none-eabi/lib/thumb/v7e-m+fp/hard\libcr_semihost_nf.a(__sys_seek.o)
                0x0000b1f4                __sys_seek
 .text.__sys_tmpnam
                0x0000b200        0xc c:/nxp/mcuxpressoide_11.2.1_4149/ide/plugins/com.nxp.mcuxpresso.tools.win32_11.2.0.202008311134/tools/bin/../lib/gcc/arm-none-eabi/9.2.1/../../../../arm-none-eabi/lib/thumb/v7e-m+fp/hard\libcr_semihost_nf.a(__sys_tmpnam.o)
                0x0000b200                __sys_tmpnam
 .text.__sys_write
                0x0000b20c        0xc c:/nxp/mcuxpressoide_11.2.1_4149/ide/plugins/com.nxp.mcuxpresso.tools.win32_11.2.0.202008311134/tools/bin/../lib/gcc/arm-none-eabi/9.2.1/../../../../arm-none-eabi/lib/thumb/v7e-m+fp/hard\libcr_semihost_nf.a(__sys_write.o)
                0x0000b20c                __sys_write
 *freertos*/tasks.o(SORT_BY_ALIGNMENT(.rodata*))
 .rodata.vTaskStartScheduler.str1.1
                0x0000b218        0x5 ./freertos/freertos_kernel/tasks.o
 *(SORT_BY_ALIGNMENT(.rodata) SORT_BY_ALIGNMENT(.rodata.*) SORT_BY_ALIGNMENT(.constdata) SORT_BY_ALIGNMENT(.constdata.*))
 *fill*         0x0000b21d        0x3 ff
 .rodata.s_UsbDeviceStandardRequest
                0x0000b220       0x34 ./usb/device/source/usb_device_ch9.o
 .rodata.s_UsbDeviceKhciInterface
                0x0000b254       0x18 ./usb/device/source/usb_device_dci.o
 .rodata.s_UsbDeviceClassInterfaceMap
                0x0000b26c       0x20 ./usb/device/class/usb_device_class.o
 .rodata.CSWTCH.151
                0x0000b28c       0x34 ./source/Tracealyzer/trcStreamingRecorder.o
 .rodata.s_adc16Clocks
                0x0000b2c0        0x8 ./drivers/fsl_adc16.o
 .rodata.s_ftmClocks
                0x0000b2c8       0x10 ./drivers/fsl_ftm.o
 .rodata.s_uartClock
                0x0000b2d8        0xc ./drivers/fsl_uart.o
 .rodata.sGPIOconfig
                0x0000b2e4       0xe0 ./board/board.o
                0x0000b2e4                sGPIOconfig
 .rodata.simConfig_BOARD_BootClockRUN
                0x0000b3c4        0x8 ./board/clock_config.o
                0x0000b3c4                simConfig_BOARD_BootClockRUN
 .rodata.__num_Ciob_streams
                0x0000b3cc        0x4 c:/nxp/mcuxpressoide_11.2.1_4149/ide/plugins/com.nxp.mcuxpresso.tools.win32_11.2.0.202008311134/tools/bin/../lib/gcc/arm-none-eabi/9.2.1/../../../../arm-none-eabi/lib/thumb/v7e-m+fp/hard\libcr_semihost_nf.a(__ciob.o)
                0x0000b3cc                __num_Ciob_streams
 .rodata.fllFactorTable.7685
                0x0000b3d0       0x10 ./drivers/fsl_clock.o
 .rodata.USB_DeviceCdcVcomCallback.str1.1
                0x0000b3e0       0x2e ./source/usb/virtual_com.o
 .rodata.USB_DeviceApplicationInit.str1.1
                0x0000b40e       0x9c ./source/usb/virtual_com.o
 .rodata.usb_main_init.str1.1
                0x0000b4aa       0x23 ./source/usb/virtual_com.o
 .rodata._DoInit.str1.1
                0x0000b4cd       0x14 ./source/Tracealyzer/streamports/Jlink_RTT/SEGGER_RTT.o
 .rodata.vTraceEnable.str1.1
                0x0000b4e1       0x13 ./source/Tracealyzer/trcKernelPort.o
 .rodata.prvTraceError.str1.1
                0x0000b4f4       0x24 ./source/Tracealyzer/trcStreamingRecorder.o
 .rodata.str1.1
                0x0000b518      0x253 ./source/Tracealyzer/trcStreamingRecorder.o
 .rodata.main.str1.1
                0x0000b76b      0x17c ./source/BRDUINO_Nano.o
 .rodata.SysInfoStruct
                0x0000b8e7       0x26 ./source/System.o
 .rodata.prvCheckForValidListAndQueue.str1.1
                0x0000b90d        0x5 ./freertos/freertos_kernel/timers.o
 .rodata.xTimerCreateTimerTask.str1.1
                0x0000b912        0x8 ./freertos/freertos_kernel/timers.o
 .rodata.ADC0_IRQHandler.str1.1
                0x0000b91a       0x29 ./board/board.o
 .rodata.BOARD_Init.str1.1
                0x0000b943        0x4 ./board/board.o
 .rodata.VrefConfigStruct
                0x0000b947        0x1 ./board/board.o
 .rodata.adc16ConfigStruct
                0x0000b948        0x9 ./board/board.o
 .rodata.pitConfig
                0x0000b951        0x1 ./board/board.o
 .rodata._Csys_alloc.str1.1
                0x0000b952       0x18 c:/nxp/mcuxpressoide_11.2.1_4149/ide/plugins/com.nxp.mcuxpresso.tools.win32_11.2.0.202008311134/tools/bin/../lib/gcc/arm-none-eabi/9.2.1/../../../../arm-none-eabi/lib/thumb/v7e-m+fp/hard\libcr_c.a(alloc.o)
 .rodata._initio.str1.1
                0x0000b96a        0x4 c:/nxp/mcuxpressoide_11.2.1_4149/ide/plugins/com.nxp.mcuxpresso.tools.win32_11.2.0.202008311134/tools/bin/../lib/gcc/arm-none-eabi/9.2.1/../../../../arm-none-eabi/lib/thumb/v7e-m+fp/hard\libcr_c.a(initio.o)
 .rodata.__vfprintf.str1.1
                0x0000b96e       0x35 c:/nxp/mcuxpressoide_11.2.1_4149/ide/plugins/com.nxp.mcuxpresso.tools.win32_11.2.0.202008311134/tools/bin/../lib/gcc/arm-none-eabi/9.2.1/../../../../arm-none-eabi/lib/thumb/v7e-m+fp/hard\libcr_c.a(printf.o)
                                 0x38 (size before relaxing)
                0x0000b9a4                . = ALIGN (0x4)
 *fill*         0x0000b9a3        0x1 ff

.glue_7         0x0000b9a4        0x0
 .glue_7        0x0000b9a4        0x0 linker stubs

.glue_7t        0x0000b9a4        0x0
 .glue_7t       0x0000b9a4        0x0 linker stubs

.vfp11_veneer   0x0000b9a4        0x0
 .vfp11_veneer  0x0000b9a4        0x0 linker stubs

.v4_bx          0x0000b9a4        0x0
 .v4_bx         0x0000b9a4        0x0 linker stubs

.iplt           0x0000b9a4        0x0
 .iplt          0x0000b9a4        0x0 ./usb/device/source/khci/usb_device_khci.o

.rel.dyn        0x0000b9a4        0x0
 .rel.iplt      0x0000b9a4        0x0 ./usb/device/source/khci/usb_device_khci.o

.ARM.extab
 *(SORT_BY_ALIGNMENT(.ARM.extab*) SORT_BY_ALIGNMENT(.gnu.linkonce.armextab.*))

.ARM.exidx      0x0000b9a4        0x0
                0x0000b9a4                __exidx_start = .
 *(SORT_BY_ALIGNMENT(.ARM.exidx*) SORT_BY_ALIGNMENT(.gnu.linkonce.armexidx.*))
                0x0000b9a4                __exidx_end = .
                0x0000b9a4                _etext = .

.m_usb_data
 *(SORT_BY_ALIGNMENT(m_usb_bdt))

.data_RAM2      0x1fff0000        0x0 load address 0x0000b9a4
 FILL mask 0xff
                [!provide]                PROVIDE (__start_data_RAM2 = .)
                [!provide]                PROVIDE (__start_data_SRAM_LOWER = .)
 *(SORT_BY_ALIGNMENT(.ramfunc.$RAM2))
 *(SORT_BY_ALIGNMENT(.ramfunc.$SRAM_LOWER))
 *(SORT_BY_ALIGNMENT(.data.$RAM2))
 *(SORT_BY_ALIGNMENT(.data.$SRAM_LOWER))
 *(SORT_BY_ALIGNMENT(.data.$RAM2.*))
 *(SORT_BY_ALIGNMENT(.data.$SRAM_LOWER.*))
                0x1fff0000                . = ALIGN (0x4)
                [!provide]                PROVIDE (__end_data_RAM2 = .)
                [!provide]                PROVIDE (__end_data_SRAM_LOWER = .)

.uninit_RESERVED
                0x20000000        0x0
                0x20000000                _start_uninit_RESERVED = .
 *(SORT_BY_ALIGNMENT(.bss.$RESERVED*))
                0x20000000                . = ALIGN (0x4)
                0x20000000                _end_uninit_RESERVED = .

.data           0x20000000      0x250 load address 0x0000b9a4
 FILL mask 0xff
                0x20000000                _data = .
                [!provide]                PROVIDE (__start_data_RAM = .)
                [!provide]                PROVIDE (__start_data_SRAM_UPPER = .)
 *(SORT_BY_ALIGNMENT(vtable))
 *(SORT_BY_ALIGNMENT(.ramfunc*))
 *(SORT_BY_ALIGNMENT(CodeQuickAccess))
 *(SORT_BY_ALIGNMENT(DataQuickAccess))
 *(SORT_BY_ALIGNMENT(RamFunction))
 *(SORT_BY_ALIGNMENT(.data*))
 .data.g_UsbDeviceCdcVcomCommunicationInterface
                0x20000000       0x10 ./source/usb/usb_device_descriptor.o
                0x20000000                g_UsbDeviceCdcVcomCommunicationInterface
 .data.g_UsbDeviceCdcVcomConfig
                0x20000010        0x8 ./source/usb/usb_device_descriptor.o
                0x20000010                g_UsbDeviceCdcVcomConfig
 .data.g_UsbDeviceCdcVcomDataInterface
                0x20000018       0x10 ./source/usb/usb_device_descriptor.o
                0x20000018                g_UsbDeviceCdcVcomDataInterface
 .data.g_UsbDeviceCdcVcomInterfaceList
                0x20000028        0x8 ./source/usb/usb_device_descriptor.o
                0x20000028                g_UsbDeviceCdcVcomInterfaceList
 .data.g_UsbDeviceCdcVcomInterfaces
                0x20000030       0x18 ./source/usb/usb_device_descriptor.o
                0x20000030                g_UsbDeviceCdcVcomInterfaces
 .data.g_UsbDeviceConfigurationDescriptor
                0x20000048       0x43 ./source/usb/usb_device_descriptor.o
                0x20000048                g_UsbDeviceConfigurationDescriptor
 *fill*         0x2000008b        0x1 ff
 .data.g_UsbDeviceDescriptor
                0x2000008c       0x12 ./source/usb/usb_device_descriptor.o
                0x2000008c                g_UsbDeviceDescriptor
 *fill*         0x2000009e        0x2 ff
 .data.g_UsbDeviceLanguage
                0x200000a0        0xc ./source/usb/usb_device_descriptor.o
                0x200000a0                g_UsbDeviceLanguage
 .data.g_UsbDeviceLanguageList
                0x200000ac       0x10 ./source/usb/usb_device_descriptor.o
                0x200000ac                g_UsbDeviceLanguageList
 .data.g_UsbDeviceString0
                0x200000bc        0x4 ./source/usb/usb_device_descriptor.o
                0x200000bc                g_UsbDeviceString0
 .data.g_UsbDeviceString1
                0x200000c0       0x26 ./source/usb/usb_device_descriptor.o
                0x200000c0                g_UsbDeviceString1
 *fill*         0x200000e6        0x2 ff
 .data.g_UsbDeviceString2
                0x200000e8       0x2a ./source/usb/usb_device_descriptor.o
                0x200000e8                g_UsbDeviceString2
 *fill*         0x20000112        0x2 ff
 .data.g_UsbDeviceStringDescriptorArray
                0x20000114        0xc ./source/usb/usb_device_descriptor.o
                0x20000114                g_UsbDeviceStringDescriptorArray
 .data.g_UsbDeviceStringDescriptorLength
                0x20000120        0xc ./source/usb/usb_device_descriptor.o
                0x20000120                g_UsbDeviceStringDescriptorLength
 .data.s_cdcAcmConfig
                0x2000012c        0xc ./source/usb/virtual_com.o
 .data.s_cdcAcmConfigList
                0x20000138        0xc ./source/usb/virtual_com.o
 .data.s_lineCoding
                0x20000144        0x7 ./source/usb/virtual_com.o
 *fill*         0x2000014b        0x1 ff
 .data.uxCriticalNesting
                0x2000014c        0x4 ./freertos/freertos_kernel/portable/GCC/ARM_CM4F/port.o
 .data.s_fastIrcFreq
                0x20000150        0x4 ./drivers/fsl_clock.o
 .data.s_slowIrcFreq
                0x20000154        0x4 ./drivers/fsl_clock.o
 .data.SystemCoreClock
                0x20000158        0x4 ./device/system_MK22F51212.o
                0x20000158                SystemCoreClock
 .data.ADC_Conversion_ADC0_Ptr
                0x2000015c       0x30 ./board/board.o
 .data.adc16BoardChannel
                0x2000018c       0xa8 ./board/board.o
 .data.g_UsbDeviceCdcVcomCicEndpoints
                0x20000234        0x6 ./source/usb/usb_device_descriptor.o
                0x20000234                g_UsbDeviceCdcVcomCicEndpoints
 .data.g_UsbDeviceCdcVcomDicEndpoints
                0x2000023a        0xc ./source/usb/usb_device_descriptor.o
                0x2000023a                g_UsbDeviceCdcVcomDicEndpoints
 .data.CurrentFilterGroup
                0x20000246        0x2 ./source/Tracealyzer/trcStreamingRecorder.o
                0x20000246                CurrentFilterGroup
 .data.CurrentFilterMask
                0x20000248        0x2 ./source/Tracealyzer/trcStreamingRecorder.o
                0x20000248                CurrentFilterMask
 .data.PSFExtensionInfo
                0x2000024a        0x4 ./source/Tracealyzer/trcStreamingRecorder.o
                0x2000024a                PSFExtensionInfo
 .data.ISR_stack_index
                0x2000024e        0x1 ./source/Tracealyzer/trcStreamingRecorder.o
 .data.lastReceiveSource
                0x2000024f        0x1 ./source/CommandHandler.o
                0x20000250                . = ALIGN (0x4)
                0x20000250                _edata = .
                [!provide]                PROVIDE (__end_data_RAM = .)
                [!provide]                PROVIDE (__end_data_SRAM_UPPER = .)

.igot.plt       0x20000250        0x0 load address 0x0000bbf4
 .igot.plt      0x20000250        0x0 ./usb/device/source/khci/usb_device_khci.o

.bss_RAM2       0x1fff0000        0x0
                [!provide]                PROVIDE (__start_bss_RAM2 = .)
                [!provide]                PROVIDE (__start_bss_SRAM_LOWER = .)
 *(SORT_BY_ALIGNMENT(.bss.$RAM2))
 *(SORT_BY_ALIGNMENT(.bss.$SRAM_LOWER))
 *(SORT_BY_ALIGNMENT(.bss.$RAM2.*))
 *(SORT_BY_ALIGNMENT(.bss.$SRAM_LOWER.*))
                0x1fff0000                . = ALIGN ((. != 0x0)?0x4:0x1)
                [!provide]                PROVIDE (__end_bss_RAM2 = .)
                [!provide]                PROVIDE (__end_bss_SRAM_LOWER = .)

.bss            0x20000400     0x73d0
                0x20000400                _bss = .
                [!provide]                PROVIDE (__start_bss_RAM = .)
                [!provide]                PROVIDE (__start_bss_SRAM_UPPER = .)
 *(SORT_BY_ALIGNMENT(.bss*))
 .bss.s_UsbDeviceKhciBdtBuffer
                0x20000400      0x200 ./usb/device/source/khci/usb_device_khci.o
 .bss.JiffyCntr
                0x20000600        0x8 ./board/board.o
 .bss.s_UsbDeviceKhciDmaAlignBuffer
                0x20000608       0x40 ./usb/device/source/khci/usb_device_khci.o
 .bss.s_UsbDeviceKhciState
                0x20000648       0xa4 ./usb/device/source/khci/usb_device_khci.o
 .bss.s_UsbDevice
                0x200006ec       0x70 ./usb/device/source/usb_device_dci.o
 .bss.g_cdcAcmHandle
                0x2000075c       0x50 ./usb/device/class/cdc/usb_device_cdc_acm.o
 .bss.s_UsbDeviceCommonClassStruct
                0x200007ac       0x10 ./usb/device/class/usb_device_class.o
 .bss.s_UsbDeviceSetupBuffer
                0x200007bc        0x8 ./usb/device/class/usb_device_class.o
 .bss.iPtr.10607
                0x200007c4        0x4 ./source/usb/virtual_com.o
 .bss.s_abstractState
                0x200007c8        0x2 ./source/usb/virtual_com.o
 *fill*         0x200007ca        0x2 
 .bss.s_cdcVcom
                0x200007cc       0x1c ./source/usb/virtual_com.o
                0x200007cc                s_cdcVcom
 .bss.s_countryCode
                0x200007e8        0x2 ./source/usb/virtual_com.o
 *fill*         0x200007ea        0x2 
 .bss.s_currRecvBuf
                0x200007ec       0x40 ./source/usb/virtual_com.o
 .bss.s_currSendBuf
                0x2000082c       0x40 ./source/usb/virtual_com.o
 .bss.s_recvSize
                0x2000086c        0x4 ./source/usb/virtual_com.o
 .bss.s_sendSize
                0x20000870        0x4 ./source/usb/virtual_com.o
 .bss.s_usbCdcAcmInfo
                0x20000874       0x12 ./source/usb/virtual_com.o
 *fill*         0x20000886        0x2 
 .bss._SEGGER_RTT
                0x20000888       0xa8 ./source/Tracealyzer/streamports/Jlink_RTT/SEGGER_RTT.o
                0x20000888                _SEGGER_RTT
 .bss.HandleTzCtrl
                0x20000930        0x4 ./source/Tracealyzer/trcKernelPort.o
 .bss.i.7811    0x20000934        0x4 ./source/Tracealyzer/trcKernelPort.o
 .bss.pCurrentTCB
                0x20000938        0x4 ./source/Tracealyzer/trcKernelPort.o
 .bss.tasksInStackMonitor
                0x2000093c       0x50 ./source/Tracealyzer/trcKernelPort.o
                0x2000093c                tasksInStackMonitor
 .bss.tasksNotIncluded
                0x2000098c        0x4 ./source/Tracealyzer/trcKernelPort.o
                0x2000098c                tasksNotIncluded
 .bss.trcWarningChannel
                0x20000990        0x4 ./source/Tracealyzer/trcKernelPort.o
                0x20000990                trcWarningChannel
 .bss.ErrorAndWarningFlags
                0x20000994        0x4 ./source/Tracealyzer/trcStreamingRecorder.o
 .bss.LongestSymbolName
                0x20000998        0x4 ./source/Tracealyzer/trcStreamingRecorder.o
                0x20000998                LongestSymbolName
 .bss.MaxBytesTruncated
                0x2000099c        0x4 ./source/Tracealyzer/trcStreamingRecorder.o
                0x2000099c                MaxBytesTruncated
 .bss.NoRoomForObjectData
                0x200009a0        0x4 ./source/Tracealyzer/trcStreamingRecorder.o
                0x200009a0                NoRoomForObjectData
 .bss.NoRoomForSymbol
                0x200009a4        0x4 ./source/Tracealyzer/trcStreamingRecorder.o
                0x200009a4                NoRoomForSymbol
 .bss.RecorderEnabled
                0x200009a8        0x4 ./source/Tracealyzer/trcStreamingRecorder.o
                0x200009a8                RecorderEnabled
 .bss.SessionCounter
                0x200009ac        0x4 ./source/Tracealyzer/trcStreamingRecorder.o
 .bss.errorCode
                0x200009b0        0x4 ./source/Tracealyzer/trcStreamingRecorder.o
 .bss.eventCounter
                0x200009b4        0x4 ./source/Tracealyzer/trcStreamingRecorder.o
 .bss.firstFreeObjectDataTableIndex
                0x200009b8        0x4 ./source/Tracealyzer/trcStreamingRecorder.o
 .bss.firstFreeSymbolTableIndex
                0x200009bc        0x4 ./source/Tracealyzer/trcStreamingRecorder.o
 .bss.objectDataTable
                0x200009c0      0x140 ./source/Tracealyzer/trcStreamingRecorder.o
 .bss.symbolTable
                0x20000b00      0x500 ./source/Tracealyzer/trcStreamingRecorder.o
 .bss.timestampFrequency
                0x20001000        0x4 ./source/Tracealyzer/trcStreamingRecorder.o
                0x20001000                timestampFrequency
 .bss.trcHeapCounter
                0x20001004        0x4 ./source/Tracealyzer/trcStreamingRecorder.o
                0x20001004                trcHeapCounter
 .bss.uiTraceSystemState
                0x20001008        0x4 ./source/Tracealyzer/trcStreamingRecorder.o
                0x20001008                uiTraceSystemState
 .bss.uiTraceTickCount
                0x2000100c        0x4 ./source/Tracealyzer/trcStreamingRecorder.o
                0x2000100c                uiTraceTickCount
 .bss.TaskComm  0x20001010        0x4 ./source/BRDUINO_Nano.o
                0x20001010                TaskComm
 .bss.dbgChannel
                0x20001014        0x4 ./source/BRDUINO_Nano.o
                0x20001014                dbgChannel
 .bss.escape_seq.10580
                0x20001018        0x4 ./source/CommandHandler.o
 .bss.escape_seq.10597
                0x2000101c        0x4 ./source/CommandHandler.o
 .bss.len.10578
                0x20001020        0x4 ./source/CommandHandler.o
 .bss.len.10595
                0x20001024        0x4 ./source/CommandHandler.o
 .bss.packet_len
                0x20001028        0x4 ./source/CommandHandler.o
 .bss.packet_pending.10579
                0x2000102c        0x4 ./source/CommandHandler.o
 .bss.packet_pending.10596
                0x20001030        0x4 ./source/CommandHandler.o
 .bss.xMutex_CmdHandler
                0x20001034        0x4 ./source/CommandHandler.o
                0x20001034                xMutex_CmdHandler
 .bss.xSemaBin_CmdPollDevices
                0x20001038        0x4 ./source/CommandHandler.o
                0x20001038                xSemaBin_CmdPollDevices
 .bss.UART_descriptor
                0x2000103c       0x18 ./source/uart.o
                0x2000103c                UART_descriptor
 .bss.pxEnd     0x20001054        0x4 ./freertos/freertos_kernel/portable/MemMang/heap_4.o
 .bss.xBlockAllocatedBit
                0x20001058        0x4 ./freertos/freertos_kernel/portable/MemMang/heap_4.o
 .bss.xFreeBytesRemaining
                0x2000105c        0x4 ./freertos/freertos_kernel/portable/MemMang/heap_4.o
 .bss.xMinimumEverFreeBytesRemaining
                0x20001060        0x4 ./freertos/freertos_kernel/portable/MemMang/heap_4.o
 .bss.xNumberOfSuccessfulAllocations
                0x20001064        0x4 ./freertos/freertos_kernel/portable/MemMang/heap_4.o
 .bss.xNumberOfSuccessfulFrees
                0x20001068        0x4 ./freertos/freertos_kernel/portable/MemMang/heap_4.o
 .bss.xStart    0x2000106c        0x8 ./freertos/freertos_kernel/portable/MemMang/heap_4.o
 .bss.ulMaxPRIGROUPValue
                0x20001074        0x4 ./freertos/freertos_kernel/portable/GCC/ARM_CM4F/port.o
 .bss.xQueueRegistry
                0x20001078       0x40 ./freertos/freertos_kernel/queue.o
                0x20001078                xQueueRegistry
 .bss.pxCurrentTCB
                0x200010b8        0x4 ./freertos/freertos_kernel/tasks.o
                0x200010b8                pxCurrentTCB
 .bss.pxDelayedTaskList
                0x200010bc        0x4 ./freertos/freertos_kernel/tasks.o
 .bss.pxOverflowDelayedTaskList
                0x200010c0        0x4 ./freertos/freertos_kernel/tasks.o
 .bss.pxReadyTasksLists
                0x200010c4       0x64 ./freertos/freertos_kernel/tasks.o
 .bss.uxCurrentNumberOfTasks
                0x20001128        0x4 ./freertos/freertos_kernel/tasks.o
 .bss.uxDeletedTasksWaitingCleanUp
                0x2000112c        0x4 ./freertos/freertos_kernel/tasks.o
 .bss.uxSchedulerSuspended
                0x20001130        0x4 ./freertos/freertos_kernel/tasks.o
 .bss.uxTaskNumber
                0x20001134        0x4 ./freertos/freertos_kernel/tasks.o
 .bss.uxTopReadyPriority
                0x20001138        0x4 ./freertos/freertos_kernel/tasks.o
 .bss.xDelayedTaskList1
                0x2000113c       0x14 ./freertos/freertos_kernel/tasks.o
 .bss.xDelayedTaskList2
                0x20001150       0x14 ./freertos/freertos_kernel/tasks.o
 .bss.xIdleTaskHandle
                0x20001164        0x4 ./freertos/freertos_kernel/tasks.o
 .bss.xNextTaskUnblockTime
                0x20001168        0x4 ./freertos/freertos_kernel/tasks.o
 .bss.xNumOfOverflows
                0x2000116c        0x4 ./freertos/freertos_kernel/tasks.o
 .bss.xPendedTicks
                0x20001170        0x4 ./freertos/freertos_kernel/tasks.o
 .bss.xPendingReadyList
                0x20001174       0x14 ./freertos/freertos_kernel/tasks.o
 .bss.xSchedulerRunning
                0x20001188        0x4 ./freertos/freertos_kernel/tasks.o
 .bss.xSuspendedTaskList
                0x2000118c       0x14 ./freertos/freertos_kernel/tasks.o
 .bss.xTasksWaitingTermination
                0x200011a0       0x14 ./freertos/freertos_kernel/tasks.o
 .bss.xTickCount
                0x200011b4        0x4 ./freertos/freertos_kernel/tasks.o
 .bss.xYieldPending
                0x200011b8        0x4 ./freertos/freertos_kernel/tasks.o
 .bss.pxCurrentTimerList
                0x200011bc        0x4 ./freertos/freertos_kernel/timers.o
 .bss.pxOverflowTimerList
                0x200011c0        0x4 ./freertos/freertos_kernel/timers.o
 .bss.xActiveTimerList1
                0x200011c4       0x14 ./freertos/freertos_kernel/timers.o
 .bss.xActiveTimerList2
                0x200011d8       0x14 ./freertos/freertos_kernel/timers.o
 .bss.xLastTime.8063
                0x200011ec        0x4 ./freertos/freertos_kernel/timers.o
 .bss.xTimerQueue
                0x200011f0        0x4 ./freertos/freertos_kernel/timers.o
 .bss.xTimerTaskHandle
                0x200011f4        0x4 ./freertos/freertos_kernel/timers.o
 .bss.g_xtal0Freq
                0x200011f8        0x4 ./drivers/fsl_clock.o
                0x200011f8                g_xtal0Freq
 .bss.g_xtal32Freq
                0x200011fc        0x4 ./drivers/fsl_clock.o
                0x200011fc                g_xtal32Freq
 .bss.g_dspiHandle
                0x20001200        0x8 ./drivers/fsl_dspi.o
 .bss.s_dspiMasterIsr
                0x20001208        0x4 ./drivers/fsl_dspi.o
 .bss.s_dspiSlaveIsr
                0x2000120c        0x4 ./drivers/fsl_dspi.o
 .bss.s_i2cHandle
                0x20001210        0x8 ./drivers/fsl_i2c.o
 .bss.s_i2cMasterIsr
                0x20001218        0x4 ./drivers/fsl_i2c.o
 .bss.s_i2cSlaveIsr
                0x2000121c        0x4 ./drivers/fsl_i2c.o
 .bss.s_uartHandle
                0x20001220        0xc ./drivers/fsl_uart.o
 .bss.s_uartIsr
                0x2000122c        0x4 ./drivers/fsl_uart.o
 .bss.ADC0channel_ctr_old.9766
                0x20001230        0x4 ./board/board.o
 .bss.adc_channel
                0x20001234        0x4 ./board/board.o
                0x20001234                adc_channel
 .bss.gADC0channel_ctr
                0x20001238        0x4 ./board/board.o
 .bss.gCnt      0x2000123c        0x4 ./board/board.o
                0x2000123c                gCnt
 .bss.__end_of_heap
                0x20001240        0x4 c:/nxp/mcuxpressoide_11.2.1_4149/ide/plugins/com.nxp.mcuxpresso.tools.win32_11.2.0.202008311134/tools/bin/../lib/gcc/arm-none-eabi/9.2.1/../../../../arm-none-eabi/lib/thumb/v7e-m+fp/hard\libcr_c.a(__init_alloc.o)
                0x20001240                __end_of_heap
 .bss.__heaps   0x20001244        0x4 c:/nxp/mcuxpressoide_11.2.1_4149/ide/plugins/com.nxp.mcuxpresso.tools.win32_11.2.0.202008311134/tools/bin/../lib/gcc/arm-none-eabi/9.2.1/../../../../arm-none-eabi/lib/thumb/v7e-m+fp/hard\libcr_c.a(__init_alloc.o)
                0x20001244                __heaps
 .bss.errno     0x20001248        0x4 c:/nxp/mcuxpressoide_11.2.1_4149/ide/plugins/com.nxp.mcuxpresso.tools.win32_11.2.0.202008311134/tools/bin/../lib/gcc/arm-none-eabi/9.2.1/../../../../arm-none-eabi/lib/thumb/v7e-m+fp/hard\libcr_c.a(errno.o)
                0x20001248                errno
 .bss.__Ciob    0x2000124c       0xb4 c:/nxp/mcuxpressoide_11.2.1_4149/ide/plugins/com.nxp.mcuxpresso.tools.win32_11.2.0.202008311134/tools/bin/../lib/gcc/arm-none-eabi/9.2.1/../../../../arm-none-eabi/lib/thumb/v7e-m+fp/hard\libcr_semihost_nf.a(__ciob.o)
                0x2000124c                __Ciob
 .bss.ADC_conversion_value
                0x20001300        0xc ./board/board.o
 .bss.DeviceOwnAddress
                0x2000130c        0x2 ./board/board.o
 .bss.g_error   0x2000130e        0x1 ./source/usb/virtual_com.o
 .bss.usb_packet_buf
                0x2000130f       0x40 ./source/usb/virtual_com.o
 .bss._acDownBuffer
                0x2000134f       0x10 ./source/Tracealyzer/streamports/Jlink_RTT/SEGGER_RTT.o
 .bss._acUpBuffer
                0x2000135f       0x40 ./source/Tracealyzer/streamports/Jlink_RTT/SEGGER_RTT.o
 .bss._TzCtrlData
                0x2000139f       0x20 ./source/Tracealyzer/trcKernelPort.o
 .bss._TzTraceData
                0x200013bf     0x1388 ./source/Tracealyzer/trcKernelPort.o
                0x200013bf                _TzTraceData
 .bss.packet_received_0
                0x20002747        0x1 ./source/CommandHandler.o
 .bss.packet_wait_proc_0
                0x20002748        0x1 ./source/CommandHandler.o
 .bss.rcv_buf_0
                0x20002749       0x40 ./source/CommandHandler.o
 .bss.rec_error
                0x20002789        0x1 ./source/CommandHandler.o
 .bss.sbuf_0    0x2000278a       0x40 ./source/CommandHandler.o
 .bss.t_cmd     0x200027ca        0x1 ./source/CommandHandler.o
 .bss.t_subcmd  0x200027cb        0x1 ./source/CommandHandler.o
 .bss.ucHeap    0x200027cc     0x5000 ./freertos/freertos_kernel/portable/MemMang/heap_4.o
 .bss.ucMaxSysCallPriority
                0x200077cc        0x1 ./freertos/freertos_kernel/portable/GCC/ARM_CM4F/port.o
 *(SORT_BY_ALIGNMENT(COMMON))
                0x200077d0                . = ALIGN (0x4)
 *fill*         0x200077cd        0x3 
                0x200077d0                _ebss = .
                [!provide]                PROVIDE (__end_bss_RAM = .)
                [!provide]                PROVIDE (__end_bss_SRAM_UPPER = .)
                [!provide]                PROVIDE (end = .)

.noinit_RAM2    0x1fff0000        0x0
                [!provide]                PROVIDE (__start_noinit_RAM2 = .)
                [!provide]                PROVIDE (__start_noinit_SRAM_LOWER = .)
 *(SORT_BY_ALIGNMENT(.noinit.$RAM2))
 *(SORT_BY_ALIGNMENT(.noinit.$SRAM_LOWER))
 *(SORT_BY_ALIGNMENT(.noinit.$RAM2.*))
 *(SORT_BY_ALIGNMENT(.noinit.$SRAM_LOWER.*))
                0x1fff0000                . = ALIGN (0x4)
                [!provide]                PROVIDE (__end_noinit_RAM2 = .)
                [!provide]                PROVIDE (__end_noinit_SRAM_LOWER = .)

.noinit         0x200077d0        0x0
                0x200077d0                _noinit = .
                [!provide]                PROVIDE (__start_noinit_RAM = .)
                [!provide]                PROVIDE (__start_noinit_SRAM_UPPER = .)
 *(SORT_BY_ALIGNMENT(.noinit*))
                0x200077d0                . = ALIGN (0x4)
                0x200077d0                _end_noinit = .
                [!provide]                PROVIDE (__end_noinit_RAM = .)
                [!provide]                PROVIDE (__end_noinit_SRAM_UPPER = .)
                0x00001000                _HeapSize = 0x1000

.heap           0x200077d0     0x1000
                0x200077d0                _pvHeapStart = .
                0x200087d0                . = (. + _HeapSize)
 *fill*         0x200077d0     0x1000 
                0x200087d0                . = ALIGN (0x4)
                0x200087d0                _pvHeapLimit = .
                0x00001000                _StackSize = 0x1000

.heap2stackfill
                0x200087d0     0x1000
                0x200097d0                . = (. + _StackSize)
 *fill*         0x200087d0     0x1000 

.stack          0x2000f000        0x0
                0x2000f000                _vStackBase = .
                0x2000f000                . = ALIGN (0x4)
                0x20010000                _vStackTop = (. + _StackSize)
                0x00002000                _image_start = LOADADDR (.text)
                0x0000bbf4                _image_end = (LOADADDR (.data) + SIZEOF (.data))
                0x00009bf4                _image_size = (_image_end - _image_start)
OUTPUT(BRDUINO.axf elf32-littlearm)

.debug_info     0x00000000    0x39cde
 .debug_info    0x00000000     0x2009 ./usb/device/source/khci/usb_device_khci.o
 .debug_info    0x00002009     0x20e7 ./usb/device/source/usb_device_ch9.o
 .debug_info    0x000040f0     0x1a4e ./usb/device/source/usb_device_dci.o
 .debug_info    0x00005b3e     0x17d4 ./usb/device/class/cdc/usb_device_cdc_acm.o
 .debug_info    0x00007312     0x14c4 ./usb/device/class/usb_device_class.o
 .debug_info    0x000087d6      0xbcc ./startup/startup_mk22f51212.o
 .debug_info    0x000093a2     0x11cc ./source/usb/usb_device_descriptor.o
 .debug_info    0x0000a56e     0x226e ./source/usb/virtual_com.o
 .debug_info    0x0000c7dc     0x1416 ./source/Tracealyzer/streamports/Jlink_RTT/SEGGER_RTT.o
 .debug_info    0x0000dbf2      0x4f0 ./source/Tracealyzer/streamports/Jlink_RTT/trcStreamingPort.o
 .debug_info    0x0000e0e2      0xfbf ./source/Tracealyzer/trcKernelPort.o
 .debug_info    0x0000f0a1     0x30a4 ./source/Tracealyzer/trcStreamingRecorder.o
 .debug_info    0x00012145      0xed6 ./source/BRDUINO_Nano.o
 .debug_info    0x0001301b      0x919 ./source/CmdInfo.o
 .debug_info    0x00013934     0x10ed ./source/CmdSystem.o
 .debug_info    0x00014a21     0x1953 ./source/CommandHandler.o
 .debug_info    0x00016374      0xb82 ./source/Misc.o
 .debug_info    0x00016ef6      0x752 ./source/System.o
 .debug_info    0x00017648      0x8d3 ./source/crc.o
 .debug_info    0x00017f1b       0x38 ./source/semihost_hardfault.o
 .debug_info    0x00017f53     0x2548 ./source/uart.o
 .debug_info    0x0001a49b      0x97c ./freertos/freertos_kernel/portable/MemMang/heap_4.o
 .debug_info    0x0001ae17      0x8c1 ./freertos/freertos_kernel/portable/GCC/ARM_CM4F/port.o
 .debug_info    0x0001b6d8      0x60e ./freertos/freertos_kernel/list.o
 .debug_info    0x0001bce6     0x2e2c ./freertos/freertos_kernel/queue.o
 .debug_info    0x0001eb12     0x3e84 ./freertos/freertos_kernel/tasks.o
 .debug_info    0x00022996     0x1a10 ./freertos/freertos_kernel/timers.o
 .debug_info    0x000243a6      0xf9f ./drivers/fsl_adc16.o
 .debug_info    0x00025345     0x28cd ./drivers/fsl_clock.o
 .debug_info    0x00027c12      0x33d ./drivers/fsl_common.o
 .debug_info    0x00027f4f     0x3fad ./drivers/fsl_dspi.o
 .debug_info    0x0002befc     0x18c0 ./drivers/fsl_ftm.o
 .debug_info    0x0002d7bc      0x791 ./drivers/fsl_gpio.o
 .debug_info    0x0002df4d     0x298e ./drivers/fsl_i2c.o
 .debug_info    0x000308db      0x508 ./drivers/fsl_pit.o
 .debug_info    0x00030de3     0x22bb ./drivers/fsl_uart.o
 .debug_info    0x0003309e      0x55a ./drivers/fsl_vref.o
 .debug_info    0x000335f8      0x6a5 ./device/system_MK22F51212.o
 .debug_info    0x00033c9d     0x1960 ./component/osa/fsl_os_abstraction_free_rtos.o
 .debug_info    0x000355fd     0x37b4 ./board/board.o
 .debug_info    0x00038db1      0xdcf ./board/clock_config.o
 .debug_info    0x00039b80       0x46 ./board/peripherals.o
 .debug_info    0x00039bc6      0x118 ./board/pin_mux.o

.debug_abbrev   0x00000000     0x84ec
 .debug_abbrev  0x00000000      0x4b4 ./usb/device/source/khci/usb_device_khci.o
 .debug_abbrev  0x000004b4      0x379 ./usb/device/source/usb_device_ch9.o
 .debug_abbrev  0x0000082d      0x3ac ./usb/device/source/usb_device_dci.o
 .debug_abbrev  0x00000bd9      0x353 ./usb/device/class/cdc/usb_device_cdc_acm.o
 .debug_abbrev  0x00000f2c      0x315 ./usb/device/class/usb_device_class.o
 .debug_abbrev  0x00001241      0x177 ./startup/startup_mk22f51212.o
 .debug_abbrev  0x000013b8      0x214 ./source/usb/usb_device_descriptor.o
 .debug_abbrev  0x000015cc      0x473 ./source/usb/virtual_com.o
 .debug_abbrev  0x00001a3f      0x2bc ./source/Tracealyzer/streamports/Jlink_RTT/SEGGER_RTT.o
 .debug_abbrev  0x00001cfb      0x14d ./source/Tracealyzer/streamports/Jlink_RTT/trcStreamingPort.o
 .debug_abbrev  0x00001e48      0x3d8 ./source/Tracealyzer/trcKernelPort.o
 .debug_abbrev  0x00002220      0x4fb ./source/Tracealyzer/trcStreamingRecorder.o
 .debug_abbrev  0x0000271b      0x247 ./source/BRDUINO_Nano.o
 .debug_abbrev  0x00002962      0x202 ./source/CmdInfo.o
 .debug_abbrev  0x00002b64      0x2fd ./source/CmdSystem.o
 .debug_abbrev  0x00002e61      0x3f6 ./source/CommandHandler.o
 .debug_abbrev  0x00003257      0x2ae ./source/Misc.o
 .debug_abbrev  0x00003505      0x121 ./source/System.o
 .debug_abbrev  0x00003626      0x217 ./source/crc.o
 .debug_abbrev  0x0000383d       0x2e ./source/semihost_hardfault.o
 .debug_abbrev  0x0000386b      0x611 ./source/uart.o
 .debug_abbrev  0x00003e7c      0x2e9 ./freertos/freertos_kernel/portable/MemMang/heap_4.o
 .debug_abbrev  0x00004165      0x30f ./freertos/freertos_kernel/portable/GCC/ARM_CM4F/port.o
 .debug_abbrev  0x00004474      0x16a ./freertos/freertos_kernel/list.o
 .debug_abbrev  0x000045de      0x3f2 ./freertos/freertos_kernel/queue.o
 .debug_abbrev  0x000049d0      0x45d ./freertos/freertos_kernel/tasks.o
 .debug_abbrev  0x00004e2d      0x3ab ./freertos/freertos_kernel/timers.o
 .debug_abbrev  0x000051d8      0x398 ./drivers/fsl_adc16.o
 .debug_abbrev  0x00005570      0x4b4 ./drivers/fsl_clock.o
 .debug_abbrev  0x00005a24      0x1f7 ./drivers/fsl_common.o
 .debug_abbrev  0x00005c1b      0x553 ./drivers/fsl_dspi.o
 .debug_abbrev  0x0000616e      0x3c7 ./drivers/fsl_ftm.o
 .debug_abbrev  0x00006535      0x24c ./drivers/fsl_gpio.o
 .debug_abbrev  0x00006781      0x542 ./drivers/fsl_i2c.o
 .debug_abbrev  0x00006cc3      0x240 ./drivers/fsl_pit.o
 .debug_abbrev  0x00006f03      0x46f ./drivers/fsl_uart.o
 .debug_abbrev  0x00007372      0x243 ./drivers/fsl_vref.o
 .debug_abbrev  0x000075b5      0x17b ./device/system_MK22F51212.o
 .debug_abbrev  0x00007730      0x482 ./component/osa/fsl_os_abstraction_free_rtos.o
 .debug_abbrev  0x00007bb2      0x591 ./board/board.o
 .debug_abbrev  0x00008143      0x2ba ./board/clock_config.o
 .debug_abbrev  0x000083fd       0x48 ./board/peripherals.o
 .debug_abbrev  0x00008445       0xa7 ./board/pin_mux.o

.debug_loc      0x00000000    0x1bfb1
 .debug_loc     0x00000000     0x12ee ./usb/device/source/khci/usb_device_khci.o
 .debug_loc     0x000012ee      0xf2c ./usb/device/source/usb_device_ch9.o
 .debug_loc     0x0000221a     0x12ed ./usb/device/source/usb_device_dci.o
 .debug_loc     0x00003507     0x10d1 ./usb/device/class/cdc/usb_device_cdc_acm.o
 .debug_loc     0x000045d8      0x6b6 ./usb/device/class/usb_device_class.o
 .debug_loc     0x00004c8e      0x16a ./startup/startup_mk22f51212.o
 .debug_loc     0x00004df8      0x191 ./source/usb/usb_device_descriptor.o
 .debug_loc     0x00004f89      0xaa0 ./source/usb/virtual_com.o
 .debug_loc     0x00005a29     0x17dd ./source/Tracealyzer/streamports/Jlink_RTT/SEGGER_RTT.o
 .debug_loc     0x00007206      0x154 ./source/Tracealyzer/streamports/Jlink_RTT/trcStreamingPort.o
 .debug_loc     0x0000735a      0x53b ./source/Tracealyzer/trcKernelPort.o
 .debug_loc     0x00007895     0x2359 ./source/Tracealyzer/trcStreamingRecorder.o
 .debug_loc     0x00009bee       0x6f ./source/BRDUINO_Nano.o
 .debug_loc     0x00009c5d       0xa6 ./source/CmdInfo.o
 .debug_loc     0x00009d03      0x64f ./source/CmdSystem.o
 .debug_loc     0x0000a352      0x53f ./source/CommandHandler.o
 .debug_loc     0x0000a891      0x35a ./source/Misc.o
 .debug_loc     0x0000abeb      0x20d ./source/crc.o
 .debug_loc     0x0000adf8      0xc5a ./source/uart.o
 .debug_loc     0x0000ba52      0x3f7 ./freertos/freertos_kernel/portable/MemMang/heap_4.o
 .debug_loc     0x0000be49       0xf8 ./freertos/freertos_kernel/portable/GCC/ARM_CM4F/port.o
 .debug_loc     0x0000bf41       0xaf ./freertos/freertos_kernel/list.o
 .debug_loc     0x0000bff0     0x1da2 ./freertos/freertos_kernel/queue.o
 .debug_loc     0x0000dd92     0x2154 ./freertos/freertos_kernel/tasks.o
 .debug_loc     0x0000fee6      0xdbe ./freertos/freertos_kernel/timers.o
 .debug_loc     0x00010ca4      0x539 ./drivers/fsl_adc16.o
 .debug_loc     0x000111dd     0x15e3 ./drivers/fsl_clock.o
 .debug_loc     0x000127c0      0x27a ./drivers/fsl_common.o
 .debug_loc     0x00012a3a     0x2da6 ./drivers/fsl_dspi.o
 .debug_loc     0x000157e0     0x100d ./drivers/fsl_ftm.o
 .debug_loc     0x000167ed      0x464 ./drivers/fsl_gpio.o
 .debug_loc     0x00016c51     0x235a ./drivers/fsl_i2c.o
 .debug_loc     0x00018fab       0x8b ./drivers/fsl_pit.o
 .debug_loc     0x00019036     0x15d3 ./drivers/fsl_uart.o
 .debug_loc     0x0001a609      0x161 ./drivers/fsl_vref.o
 .debug_loc     0x0001a76a       0xe6 ./device/system_MK22F51212.o
 .debug_loc     0x0001a850      0xcaa ./component/osa/fsl_os_abstraction_free_rtos.o
 .debug_loc     0x0001b4fa      0x972 ./board/board.o
 .debug_loc     0x0001be6c      0x145 ./board/clock_config.o

.debug_aranges  0x00000000     0x1a48
 .debug_aranges
                0x00000000       0x78 ./usb/device/source/khci/usb_device_khci.o
 .debug_aranges
                0x00000078       0x78 ./usb/device/source/usb_device_ch9.o
 .debug_aranges
                0x000000f0       0xa0 ./usb/device/source/usb_device_dci.o
 .debug_aranges
                0x00000190       0x68 ./usb/device/class/cdc/usb_device_cdc_acm.o
 .debug_aranges
                0x000001f8       0x60 ./usb/device/class/usb_device_class.o
 .debug_aranges
                0x00000258      0x2d0 ./startup/startup_mk22f51212.o
 .debug_aranges
                0x00000528       0x38 ./source/usb/usb_device_descriptor.o
 .debug_aranges
                0x00000560       0x70 ./source/usb/virtual_com.o
 .debug_aranges
                0x000005d0       0xf0 ./source/Tracealyzer/streamports/Jlink_RTT/SEGGER_RTT.o
 .debug_aranges
                0x000006c0       0x28 ./source/Tracealyzer/streamports/Jlink_RTT/trcStreamingPort.o
 .debug_aranges
                0x000006e8       0xb0 ./source/Tracealyzer/trcKernelPort.o
 .debug_aranges
                0x00000798      0x160 ./source/Tracealyzer/trcStreamingRecorder.o
 .debug_aranges
                0x000008f8       0x38 ./source/BRDUINO_Nano.o
 .debug_aranges
                0x00000930       0x30 ./source/CmdInfo.o
 .debug_aranges
                0x00000960       0x60 ./source/CmdSystem.o
 .debug_aranges
                0x000009c0       0x50 ./source/CommandHandler.o
 .debug_aranges
                0x00000a10       0xa8 ./source/Misc.o
 .debug_aranges
                0x00000ab8       0x28 ./source/System.o
 .debug_aranges
                0x00000ae0       0x30 ./source/crc.o
 .debug_aranges
                0x00000b10       0x20 ./source/semihost_hardfault.o
 .debug_aranges
                0x00000b30      0x118 ./source/uart.o
 .debug_aranges
                0x00000c48       0x50 ./freertos/freertos_kernel/portable/MemMang/heap_4.o
 .debug_aranges
                0x00000c98       0x80 ./freertos/freertos_kernel/portable/GCC/ARM_CM4F/port.o
 .debug_aranges
                0x00000d18       0x40 ./freertos/freertos_kernel/list.o
 .debug_aranges
                0x00000d58      0x118 ./freertos/freertos_kernel/queue.o
 .debug_aranges
                0x00000e70      0x1e0 ./freertos/freertos_kernel/tasks.o
 .debug_aranges
                0x00001050       0xb8 ./freertos/freertos_kernel/timers.o
 .debug_aranges
                0x00001108       0x70 ./drivers/fsl_adc16.o
 .debug_aranges
                0x00001178      0x1b0 ./drivers/fsl_clock.o
 .debug_aranges
                0x00001328       0x30 ./drivers/fsl_common.o
 .debug_aranges
                0x00001358      0x128 ./drivers/fsl_dspi.o
 .debug_aranges
                0x00001480       0xa0 ./drivers/fsl_ftm.o
 .debug_aranges
                0x00001520       0x30 ./drivers/fsl_gpio.o
 .debug_aranges
                0x00001550      0x120 ./drivers/fsl_i2c.o
 .debug_aranges
                0x00001670       0x28 ./drivers/fsl_pit.o
 .debug_aranges
                0x00001698      0x108 ./drivers/fsl_uart.o
 .debug_aranges
                0x000017a0       0x38 ./drivers/fsl_vref.o
 .debug_aranges
                0x000017d8       0x30 ./device/system_MK22F51212.o
 .debug_aranges
                0x00001808      0x100 ./component/osa/fsl_os_abstraction_free_rtos.o
 .debug_aranges
                0x00001908       0xd0 ./board/board.o
 .debug_aranges
                0x000019d8       0x30 ./board/clock_config.o
 .debug_aranges
                0x00001a08       0x20 ./board/peripherals.o
 .debug_aranges
                0x00001a28       0x20 ./board/pin_mux.o

.debug_ranges   0x00000000     0x2e38
 .debug_ranges  0x00000000       0x98 ./usb/device/source/khci/usb_device_khci.o
 .debug_ranges  0x00000098       0xb0 ./usb/device/source/usb_device_ch9.o
 .debug_ranges  0x00000148      0x110 ./usb/device/source/usb_device_dci.o
 .debug_ranges  0x00000258       0xf0 ./usb/device/class/cdc/usb_device_cdc_acm.o
 .debug_ranges  0x00000348       0x80 ./usb/device/class/usb_device_class.o
 .debug_ranges  0x000003c8      0x2c0 ./startup/startup_mk22f51212.o
 .debug_ranges  0x00000688       0x70 ./source/usb/usb_device_descriptor.o
 .debug_ranges  0x000006f8       0x78 ./source/usb/virtual_com.o
 .debug_ranges  0x00000770      0x130 ./source/Tracealyzer/streamports/Jlink_RTT/SEGGER_RTT.o
 .debug_ranges  0x000008a0       0x18 ./source/Tracealyzer/streamports/Jlink_RTT/trcStreamingPort.o
 .debug_ranges  0x000008b8      0x130 ./source/Tracealyzer/trcKernelPort.o
 .debug_ranges  0x000009e8      0x628 ./source/Tracealyzer/trcStreamingRecorder.o
 .debug_ranges  0x00001010       0x28 ./source/BRDUINO_Nano.o
 .debug_ranges  0x00001038       0x20 ./source/CmdInfo.o
 .debug_ranges  0x00001058       0x80 ./source/CmdSystem.o
 .debug_ranges  0x000010d8       0x70 ./source/CommandHandler.o
 .debug_ranges  0x00001148       0xb8 ./source/Misc.o
 .debug_ranges  0x00001200       0x18 ./source/System.o
 .debug_ranges  0x00001218       0x20 ./source/crc.o
 .debug_ranges  0x00001238       0x10 ./source/semihost_hardfault.o
 .debug_ranges  0x00001248      0x210 ./source/uart.o
 .debug_ranges  0x00001458       0x40 ./freertos/freertos_kernel/portable/MemMang/heap_4.o
 .debug_ranges  0x00001498       0x88 ./freertos/freertos_kernel/portable/GCC/ARM_CM4F/port.o
 .debug_ranges  0x00001520       0x30 ./freertos/freertos_kernel/list.o
 .debug_ranges  0x00001550      0x2a0 ./freertos/freertos_kernel/queue.o
 .debug_ranges  0x000017f0      0x358 ./freertos/freertos_kernel/tasks.o
 .debug_ranges  0x00001b48      0x128 ./freertos/freertos_kernel/timers.o
 .debug_ranges  0x00001c70       0x98 ./drivers/fsl_adc16.o
 .debug_ranges  0x00001d08      0x2a0 ./drivers/fsl_clock.o
 .debug_ranges  0x00001fa8       0x38 ./drivers/fsl_common.o
 .debug_ranges  0x00001fe0      0x4a0 ./drivers/fsl_dspi.o
 .debug_ranges  0x00002480      0x138 ./drivers/fsl_ftm.o
 .debug_ranges  0x000025b8       0x68 ./drivers/fsl_gpio.o
 .debug_ranges  0x00002620      0x288 ./drivers/fsl_i2c.o
 .debug_ranges  0x000028a8       0x60 ./drivers/fsl_pit.o
 .debug_ranges  0x00002908      0x158 ./drivers/fsl_uart.o
 .debug_ranges  0x00002a60       0x28 ./drivers/fsl_vref.o
 .debug_ranges  0x00002a88       0x20 ./device/system_MK22F51212.o
 .debug_ranges  0x00002aa8      0x120 ./component/osa/fsl_os_abstraction_free_rtos.o
 .debug_ranges  0x00002bc8      0x218 ./board/board.o
 .debug_ranges  0x00002de0       0x38 ./board/clock_config.o
 .debug_ranges  0x00002e18       0x10 ./board/peripherals.o
 .debug_ranges  0x00002e28       0x10 ./board/pin_mux.o

.debug_line     0x00000000    0x20413
 .debug_line    0x00000000      0xf8b ./usb/device/source/khci/usb_device_khci.o
 .debug_line    0x00000f8b      0xde0 ./usb/device/source/usb_device_ch9.o
 .debug_line    0x00001d6b      0xb82 ./usb/device/source/usb_device_dci.o
 .debug_line    0x000028ed     0x103b ./usb/device/class/cdc/usb_device_cdc_acm.o
 .debug_line    0x00003928      0x9a3 ./usb/device/class/usb_device_class.o
 .debug_line    0x000042cb      0xb93 ./startup/startup_mk22f51212.o
 .debug_line    0x00004e5e      0x638 ./source/usb/usb_device_descriptor.o
 .debug_line    0x00005496      0xce7 ./source/usb/virtual_com.o
 .debug_line    0x0000617d      0xf83 ./source/Tracealyzer/streamports/Jlink_RTT/SEGGER_RTT.o
 .debug_line    0x00007100      0x34f ./source/Tracealyzer/streamports/Jlink_RTT/trcStreamingPort.o
 .debug_line    0x0000744f      0x8f4 ./source/Tracealyzer/trcKernelPort.o
 .debug_line    0x00007d43     0x1f83 ./source/Tracealyzer/trcStreamingRecorder.o
 .debug_line    0x00009cc6      0x605 ./source/BRDUINO_Nano.o
 .debug_line    0x0000a2cb      0x457 ./source/CmdInfo.o
 .debug_line    0x0000a722      0x6a8 ./source/CmdSystem.o
 .debug_line    0x0000adca      0xad7 ./source/CommandHandler.o
 .debug_line    0x0000b8a1      0x774 ./source/Misc.o
 .debug_line    0x0000c015      0x33b ./source/System.o
 .debug_line    0x0000c350      0x448 ./source/crc.o
 .debug_line    0x0000c798       0x58 ./source/semihost_hardfault.o
 .debug_line    0x0000c7f0      0xf65 ./source/uart.o
 .debug_line    0x0000d755      0x8ab ./freertos/freertos_kernel/portable/MemMang/heap_4.o
 .debug_line    0x0000e000      0x91d ./freertos/freertos_kernel/portable/GCC/ARM_CM4F/port.o
 .debug_line    0x0000e91d      0x513 ./freertos/freertos_kernel/list.o
 .debug_line    0x0000ee30     0x225a ./freertos/freertos_kernel/queue.o
 .debug_line    0x0001108a     0x2eff ./freertos/freertos_kernel/tasks.o
 .debug_line    0x00013f89      0xed9 ./freertos/freertos_kernel/timers.o
 .debug_line    0x00014e62      0x735 ./drivers/fsl_adc16.o
 .debug_line    0x00015597     0x19f4 ./drivers/fsl_clock.o
 .debug_line    0x00016f8b      0x2b6 ./drivers/fsl_common.o
 .debug_line    0x00017241     0x2443 ./drivers/fsl_dspi.o
 .debug_line    0x00019684     0x102f ./drivers/fsl_ftm.o
 .debug_line    0x0001a6b3      0x37c ./drivers/fsl_gpio.o
 .debug_line    0x0001aa2f     0x1b52 ./drivers/fsl_i2c.o
 .debug_line    0x0001c581      0x2fd ./drivers/fsl_pit.o
 .debug_line    0x0001c87e     0x1410 ./drivers/fsl_uart.o
 .debug_line    0x0001dc8e      0x352 ./drivers/fsl_vref.o
 .debug_line    0x0001dfe0      0x38a ./device/system_MK22F51212.o
 .debug_line    0x0001e36a      0xc3d ./component/osa/fsl_os_abstraction_free_rtos.o
 .debug_line    0x0001efa7      0xe74 ./board/board.o
 .debug_line    0x0001fe1b      0x38b ./board/clock_config.o
 .debug_line    0x000201a6       0x49 ./board/peripherals.o
 .debug_line    0x000201ef      0x224 ./board/pin_mux.o

.debug_str      0x00000000     0xf3a1
 .debug_str     0x00000000     0x1eea ./usb/device/source/khci/usb_device_khci.o
                               0x1f86 (size before relaxing)
 .debug_str     0x00001eea     0x11bb ./usb/device/source/usb_device_ch9.o
                               0x2383 (size before relaxing)
 .debug_str     0x000030a5      0x1ce ./usb/device/source/usb_device_dci.o
                               0x1f92 (size before relaxing)
 .debug_str     0x00003273      0x592 ./usb/device/class/cdc/usb_device_cdc_acm.o
                               0x1c08 (size before relaxing)
 .debug_str     0x00003805      0x21a ./usb/device/class/usb_device_class.o
                               0x1c10 (size before relaxing)
 .debug_str     0x00003a1f      0x6f4 ./startup/startup_mk22f51212.o
                                0x83b (size before relaxing)
 .debug_str     0x00004113      0x627 ./source/usb/usb_device_descriptor.o
                               0x19a5 (size before relaxing)
 .debug_str     0x0000473a      0xd58 ./source/usb/virtual_com.o
                               0x2b31 (size before relaxing)
 .debug_str     0x00005492      0x338 ./source/Tracealyzer/streamports/Jlink_RTT/SEGGER_RTT.o
                                0x5a8 (size before relaxing)
 .debug_str     0x000057ca       0x92 ./source/Tracealyzer/streamports/Jlink_RTT/trcStreamingPort.o
                                0x477 (size before relaxing)
 .debug_str     0x0000585c      0x509 ./source/Tracealyzer/trcKernelPort.o
                                0x996 (size before relaxing)
 .debug_str     0x00005d65      0x8cb ./source/Tracealyzer/trcStreamingRecorder.o
                                0xef5 (size before relaxing)
 .debug_str     0x00006630      0x2aa ./source/BRDUINO_Nano.o
                               0x13a8 (size before relaxing)
 .debug_str     0x000068da       0x91 ./source/CmdInfo.o
                                0x8a5 (size before relaxing)
 .debug_str     0x0000696b      0x161 ./source/CmdSystem.o
                                0xb4b (size before relaxing)
 .debug_str     0x00006acc      0x480 ./source/CommandHandler.o
                               0x1b75 (size before relaxing)
 .debug_str     0x00006f4c      0x120 ./source/Misc.o
                                0xd9a (size before relaxing)
 .debug_str     0x0000706c       0x82 ./source/System.o
                                0xcae (size before relaxing)
 .debug_str     0x000070ee      0x176 ./source/crc.o
                                0x5d6 (size before relaxing)
 .debug_str     0x00007264       0x1f ./source/semihost_hardfault.o
                                0x156 (size before relaxing)
 .debug_str     0x00007283      0x660 ./source/uart.o
                               0x200f (size before relaxing)
 .debug_str     0x000078e3      0x341 ./freertos/freertos_kernel/portable/MemMang/heap_4.o
                                0x772 (size before relaxing)
 .debug_str     0x00007c24      0x21e ./freertos/freertos_kernel/portable/GCC/ARM_CM4F/port.o
                                0x683 (size before relaxing)
 .debug_str     0x00007e42      0x135 ./freertos/freertos_kernel/list.o
                                0x521 (size before relaxing)
 .debug_str     0x00007f77      0x712 ./freertos/freertos_kernel/queue.o
                                0xe82 (size before relaxing)
 .debug_str     0x00008689      0xac3 ./freertos/freertos_kernel/tasks.o
                               0x158e (size before relaxing)
 .debug_str     0x0000914c      0x51f ./freertos/freertos_kernel/timers.o
                                0xbdf (size before relaxing)
 .debug_str     0x0000966b      0xb6e ./drivers/fsl_adc16.o
                               0x1682 (size before relaxing)
 .debug_str     0x0000a1d9      0xa13 ./drivers/fsl_clock.o
                               0x1f4e (size before relaxing)
 .debug_str     0x0000abec       0xe3 ./drivers/fsl_common.o
                                0x338 (size before relaxing)
 .debug_str     0x0000accf     0x12d4 ./drivers/fsl_dspi.o
                               0x2626 (size before relaxing)
 .debug_str     0x0000bfa3      0xedb ./drivers/fsl_ftm.o
                               0x1c42 (size before relaxing)
 .debug_str     0x0000ce7e      0x188 ./drivers/fsl_gpio.o
                                0xbeb (size before relaxing)
 .debug_str     0x0000d006      0xbb0 ./drivers/fsl_i2c.o
                               0x1f1c (size before relaxing)
 .debug_str     0x0000dbb6       0x9b ./drivers/fsl_pit.o
                                0x520 (size before relaxing)
 .debug_str     0x0000dc51      0x85d ./drivers/fsl_uart.o
                               0x1fdf (size before relaxing)
 .debug_str     0x0000e4ae      0x124 ./drivers/fsl_vref.o
                                0x599 (size before relaxing)
 .debug_str     0x0000e5d2       0x9d ./device/system_MK22F51212.o
                                0x408 (size before relaxing)
 .debug_str     0x0000e66f      0x532 ./component/osa/fsl_os_abstraction_free_rtos.o
                               0x148d (size before relaxing)
 .debug_str     0x0000eba1      0x710 ./board/board.o
                               0x2b26 (size before relaxing)
 .debug_str     0x0000f2b1       0xa1 ./board/clock_config.o
                               0x11df (size before relaxing)
 .debug_str     0x0000f352       0x2d ./board/peripherals.o
                                0x16c (size before relaxing)
 .debug_str     0x0000f37f       0x22 ./board/pin_mux.o
                                0x250 (size before relaxing)

.comment        0x00000000       0x79
 .comment       0x00000000       0x79 ./usb/device/source/khci/usb_device_khci.o
                                 0x7a (size before relaxing)
 .comment       0x00000079       0x7a ./usb/device/source/usb_device_ch9.o
 .comment       0x00000079       0x7a ./usb/device/source/usb_device_dci.o
 .comment       0x00000079       0x7a ./usb/device/class/cdc/usb_device_cdc_acm.o
 .comment       0x00000079       0x7a ./usb/device/class/usb_device_class.o
 .comment       0x00000079       0x7a ./startup/startup_mk22f51212.o
 .comment       0x00000079       0x7a ./source/usb/usb_device_descriptor.o
 .comment       0x00000079       0x7a ./source/usb/virtual_com.o
 .comment       0x00000079       0x7a ./source/Tracealyzer/streamports/Jlink_RTT/SEGGER_RTT.o
 .comment       0x00000079       0x7a ./source/Tracealyzer/streamports/Jlink_RTT/trcStreamingPort.o
 .comment       0x00000079       0x7a ./source/Tracealyzer/trcKernelPort.o
 .comment       0x00000079       0x7a ./source/Tracealyzer/trcStreamingRecorder.o
 .comment       0x00000079       0x7a ./source/BRDUINO_Nano.o
 .comment       0x00000079       0x7a ./source/CmdInfo.o
 .comment       0x00000079       0x7a ./source/CmdSystem.o
 .comment       0x00000079       0x7a ./source/CommandHandler.o
 .comment       0x00000079       0x7a ./source/Misc.o
 .comment       0x00000079       0x7a ./source/System.o
 .comment       0x00000079       0x7a ./source/crc.o
 .comment       0x00000079       0x7a ./source/semihost_hardfault.o
 .comment       0x00000079       0x7a ./source/uart.o
 .comment       0x00000079       0x7a ./freertos/freertos_kernel/portable/MemMang/heap_4.o
 .comment       0x00000079       0x7a ./freertos/freertos_kernel/portable/GCC/ARM_CM4F/port.o
 .comment       0x00000079       0x7a ./freertos/freertos_kernel/list.o
 .comment       0x00000079       0x7a ./freertos/freertos_kernel/queue.o
 .comment       0x00000079       0x7a ./freertos/freertos_kernel/tasks.o
 .comment       0x00000079       0x7a ./freertos/freertos_kernel/timers.o
 .comment       0x00000079       0x7a ./drivers/fsl_adc16.o
 .comment       0x00000079       0x7a ./drivers/fsl_clock.o
 .comment       0x00000079       0x7a ./drivers/fsl_common.o
 .comment       0x00000079       0x7a ./drivers/fsl_dspi.o
 .comment       0x00000079       0x7a ./drivers/fsl_ftm.o
 .comment       0x00000079       0x7a ./drivers/fsl_gpio.o
 .comment       0x00000079       0x7a ./drivers/fsl_i2c.o
 .comment       0x00000079       0x7a ./drivers/fsl_pit.o
 .comment       0x00000079       0x7a ./drivers/fsl_uart.o
 .comment       0x00000079       0x7a ./drivers/fsl_vref.o
 .comment       0x00000079       0x7a ./device/system_MK22F51212.o
 .comment       0x00000079       0x7a ./component/osa/fsl_os_abstraction_free_rtos.o
 .comment       0x00000079       0x7a ./board/board.o
 .comment       0x00000079       0x7a ./board/clock_config.o
 .comment       0x00000079       0x7a ./board/peripherals.o
 .comment       0x00000079       0x7a ./board/pin_mux.o
 .comment       0x00000079       0x7a c:/nxp/mcuxpressoide_11.2.1_4149/ide/plugins/com.nxp.mcuxpresso.tools.win32_11.2.0.202008311134/tools/bin/../lib/gcc/arm-none-eabi/9.2.1/../../../../arm-none-eabi/lib/thumb/v7e-m+fp/hard\libcr_semihost_nf.a(_cr__main.o)
 .comment       0x00000079       0x7a c:/nxp/mcuxpressoide_11.2.1_4149/ide/plugins/com.nxp.mcuxpresso.tools.win32_11.2.0.202008311134/tools/bin/../lib/gcc/arm-none-eabi/9.2.1/../../../../arm-none-eabi/lib/thumb/v7e-m+fp/hard\libcr_c.a(memcpy.o)
 .comment       0x00000079       0x7a c:/nxp/mcuxpressoide_11.2.1_4149/ide/plugins/com.nxp.mcuxpresso.tools.win32_11.2.0.202008311134/tools/bin/../lib/gcc/arm-none-eabi/9.2.1/../../../../arm-none-eabi/lib/thumb/v7e-m+fp/hard\libcr_c.a(memset.o)
 .comment       0x00000079       0x7a c:/nxp/mcuxpressoide_11.2.1_4149/ide/plugins/com.nxp.mcuxpresso.tools.win32_11.2.0.202008311134/tools/bin/../lib/gcc/arm-none-eabi/9.2.1/../../../../arm-none-eabi/lib/thumb/v7e-m+fp/hard\libcr_c.a(alloc.o)
 .comment       0x00000079       0x7a c:/nxp/mcuxpressoide_11.2.1_4149/ide/plugins/com.nxp.mcuxpresso.tools.win32_11.2.0.202008311134/tools/bin/../lib/gcc/arm-none-eabi/9.2.1/../../../../arm-none-eabi/lib/thumb/v7e-m+fp/hard\libcr_c.a(initio.o)
 .comment       0x00000079       0x7a c:/nxp/mcuxpressoide_11.2.1_4149/ide/plugins/com.nxp.mcuxpresso.tools.win32_11.2.0.202008311134/tools/bin/../lib/gcc/arm-none-eabi/9.2.1/../../../../arm-none-eabi/lib/thumb/v7e-m+fp/hard\libcr_c.a(printf.o)
 .comment       0x00000079       0x7a c:/nxp/mcuxpressoide_11.2.1_4149/ide/plugins/com.nxp.mcuxpresso.tools.win32_11.2.0.202008311134/tools/bin/../lib/gcc/arm-none-eabi/9.2.1/../../../../arm-none-eabi/lib/thumb/v7e-m+fp/hard\libcr_c.a(setvbuf.o)
 .comment       0x00000079       0x7a c:/nxp/mcuxpressoide_11.2.1_4149/ide/plugins/com.nxp.mcuxpresso.tools.win32_11.2.0.202008311134/tools/bin/../lib/gcc/arm-none-eabi/9.2.1/../../../../arm-none-eabi/lib/thumb/v7e-m+fp/hard\libcr_c.a(strcpy.o)
 .comment       0x00000079       0x7a c:/nxp/mcuxpressoide_11.2.1_4149/ide/plugins/com.nxp.mcuxpresso.tools.win32_11.2.0.202008311134/tools/bin/../lib/gcc/arm-none-eabi/9.2.1/../../../../arm-none-eabi/lib/thumb/v7e-m+fp/hard\libcr_c.a(strlen.o)
 .comment       0x00000079       0x7a c:/nxp/mcuxpressoide_11.2.1_4149/ide/plugins/com.nxp.mcuxpresso.tools.win32_11.2.0.202008311134/tools/bin/../lib/gcc/arm-none-eabi/9.2.1/../../../../arm-none-eabi/lib/thumb/v7e-m+fp/hard\libcr_c.a(__init_alloc.o)
 .comment       0x00000079       0x7a c:/nxp/mcuxpressoide_11.2.1_4149/ide/plugins/com.nxp.mcuxpresso.tools.win32_11.2.0.202008311134/tools/bin/../lib/gcc/arm-none-eabi/9.2.1/../../../../arm-none-eabi/lib/thumb/v7e-m+fp/hard\libcr_c.a(_cr_sbrk.o)
 .comment       0x00000079       0x7a c:/nxp/mcuxpressoide_11.2.1_4149/ide/plugins/com.nxp.mcuxpresso.tools.win32_11.2.0.202008311134/tools/bin/../lib/gcc/arm-none-eabi/9.2.1/../../../../arm-none-eabi/lib/thumb/v7e-m+fp/hard\libcr_c.a(_deferredlazyseek.o)
 .comment       0x00000079       0x7a c:/nxp/mcuxpressoide_11.2.1_4149/ide/plugins/com.nxp.mcuxpresso.tools.win32_11.2.0.202008311134/tools/bin/../lib/gcc/arm-none-eabi/9.2.1/../../../../arm-none-eabi/lib/thumb/v7e-m+fp/hard\libcr_c.a(_fdopen.o)
 .comment       0x00000079       0x7a c:/nxp/mcuxpressoide_11.2.1_4149/ide/plugins/com.nxp.mcuxpresso.tools.win32_11.2.0.202008311134/tools/bin/../lib/gcc/arm-none-eabi/9.2.1/../../../../arm-none-eabi/lib/thumb/v7e-m+fp/hard\libcr_c.a(_fflush.o)
 .comment       0x00000079       0x7a c:/nxp/mcuxpressoide_11.2.1_4149/ide/plugins/com.nxp.mcuxpresso.tools.win32_11.2.0.202008311134/tools/bin/../lib/gcc/arm-none-eabi/9.2.1/../../../../arm-none-eabi/lib/thumb/v7e-m+fp/hard\libcr_c.a(_writebuf.o)
 .comment       0x00000079       0x7a c:/nxp/mcuxpressoide_11.2.1_4149/ide/plugins/com.nxp.mcuxpresso.tools.win32_11.2.0.202008311134/tools/bin/../lib/gcc/arm-none-eabi/9.2.1/../../../../arm-none-eabi/lib/thumb/v7e-m+fp/hard\libcr_c.a(errno.o)
 .comment       0x00000079       0x7a c:/nxp/mcuxpressoide_11.2.1_4149/ide/plugins/com.nxp.mcuxpresso.tools.win32_11.2.0.202008311134/tools/bin/../lib/gcc/arm-none-eabi/9.2.1/../../../../arm-none-eabi/lib/thumb/v7e-m+fp/hard\libcr_c.a(fclose.o)
 .comment       0x00000079       0x7a c:/nxp/mcuxpressoide_11.2.1_4149/ide/plugins/com.nxp.mcuxpresso.tools.win32_11.2.0.202008311134/tools/bin/../lib/gcc/arm-none-eabi/9.2.1/../../../../arm-none-eabi/lib/thumb/v7e-m+fp/hard\libcr_c.a(fflush.o)
 .comment       0x00000079       0x7a c:/nxp/mcuxpressoide_11.2.1_4149/ide/plugins/com.nxp.mcuxpresso.tools.win32_11.2.0.202008311134/tools/bin/../lib/gcc/arm-none-eabi/9.2.1/../../../../arm-none-eabi/lib/thumb/v7e-m+fp/hard\libcr_c.a(fseek.o)
 .comment       0x00000079       0x7a c:/nxp/mcuxpressoide_11.2.1_4149/ide/plugins/com.nxp.mcuxpresso.tools.win32_11.2.0.202008311134/tools/bin/../lib/gcc/arm-none-eabi/9.2.1/../../../../arm-none-eabi/lib/thumb/v7e-m+fp/hard\libcr_c.a(ftell.o)
 .comment       0x00000079       0x7a c:/nxp/mcuxpressoide_11.2.1_4149/ide/plugins/com.nxp.mcuxpresso.tools.win32_11.2.0.202008311134/tools/bin/../lib/gcc/arm-none-eabi/9.2.1/../../../../arm-none-eabi/lib/thumb/v7e-m+fp/hard\libcr_c.a(remove.o)
 .comment       0x00000079       0x7a c:/nxp/mcuxpressoide_11.2.1_4149/ide/plugins/com.nxp.mcuxpresso.tools.win32_11.2.0.202008311134/tools/bin/../lib/gcc/arm-none-eabi/9.2.1/../../../../arm-none-eabi/lib/thumb/v7e-m+fp/hard\libcr_c.a(_cr_check_heap.o)
 .comment       0x00000079       0x7a c:/nxp/mcuxpressoide_11.2.1_4149/ide/plugins/com.nxp.mcuxpresso.tools.win32_11.2.0.202008311134/tools/bin/../lib/gcc/arm-none-eabi/9.2.1/../../../../arm-none-eabi/lib/thumb/v7e-m+fp/hard\libcr_c.a(_do_fflush.o)
 .comment       0x00000079       0x7a c:/nxp/mcuxpressoide_11.2.1_4149/ide/plugins/com.nxp.mcuxpresso.tools.win32_11.2.0.202008311134/tools/bin/../lib/gcc/arm-none-eabi/9.2.1/thumb/v7e-m+fp/hard\libcr_eabihelpers.a(double.o)
 .comment       0x00000079       0x7a c:/nxp/mcuxpressoide_11.2.1_4149/ide/plugins/com.nxp.mcuxpresso.tools.win32_11.2.0.202008311134/tools/bin/../lib/gcc/arm-none-eabi/9.2.1/thumb/v7e-m+fp/hard\libcr_eabihelpers.a(float.o)
 .comment       0x00000079       0x7a c:/nxp/mcuxpressoide_11.2.1_4149/ide/plugins/com.nxp.mcuxpresso.tools.win32_11.2.0.202008311134/tools/bin/../lib/gcc/arm-none-eabi/9.2.1/../../../../arm-none-eabi/lib/thumb/v7e-m+fp/hard\libcr_semihost_nf.a(__ciob.o)

.ARM.attributes
                0x00000000       0x32
 .ARM.attributes
                0x00000000       0x34 ./usb/device/source/khci/usb_device_khci.o
 .ARM.attributes
                0x00000034       0x34 ./usb/device/source/usb_device_ch9.o
 .ARM.attributes
                0x00000068       0x34 ./usb/device/source/usb_device_dci.o
 .ARM.attributes
                0x0000009c       0x34 ./usb/device/class/cdc/usb_device_cdc_acm.o
 .ARM.attributes
                0x000000d0       0x34 ./usb/device/class/usb_device_class.o
 .ARM.attributes
                0x00000104       0x34 ./startup/startup_mk22f51212.o
 .ARM.attributes
                0x00000138       0x34 ./source/usb/usb_device_descriptor.o
 .ARM.attributes
                0x0000016c       0x34 ./source/usb/virtual_com.o
 .ARM.attributes
                0x000001a0       0x34 ./source/Tracealyzer/streamports/Jlink_RTT/SEGGER_RTT.o
 .ARM.attributes
                0x000001d4       0x34 ./source/Tracealyzer/streamports/Jlink_RTT/trcStreamingPort.o
 .ARM.attributes
                0x00000208       0x34 ./source/Tracealyzer/trcKernelPort.o
 .ARM.attributes
                0x0000023c       0x34 ./source/Tracealyzer/trcStreamingRecorder.o
 .ARM.attributes
                0x00000270       0x34 ./source/BRDUINO_Nano.o
 .ARM.attributes
                0x000002a4       0x34 ./source/CmdInfo.o
 .ARM.attributes
                0x000002d8       0x34 ./source/CmdSystem.o
 .ARM.attributes
                0x0000030c       0x34 ./source/CommandHandler.o
 .ARM.attributes
                0x00000340       0x34 ./source/Misc.o
 .ARM.attributes
                0x00000374       0x34 ./source/System.o
 .ARM.attributes
                0x000003a8       0x34 ./source/crc.o
 .ARM.attributes
                0x000003dc       0x34 ./source/semihost_hardfault.o
 .ARM.attributes
                0x00000410       0x34 ./source/uart.o
 .ARM.attributes
                0x00000444       0x34 ./freertos/freertos_kernel/portable/MemMang/heap_4.o
 .ARM.attributes
                0x00000478       0x34 ./freertos/freertos_kernel/portable/GCC/ARM_CM4F/port.o
 .ARM.attributes
                0x000004ac       0x34 ./freertos/freertos_kernel/list.o
 .ARM.attributes
                0x000004e0       0x34 ./freertos/freertos_kernel/queue.o
 .ARM.attributes
                0x00000514       0x34 ./freertos/freertos_kernel/tasks.o
 .ARM.attributes
                0x00000548       0x34 ./freertos/freertos_kernel/timers.o
 .ARM.attributes
                0x0000057c       0x34 ./drivers/fsl_adc16.o
 .ARM.attributes
                0x000005b0       0x34 ./drivers/fsl_clock.o
 .ARM.attributes
                0x000005e4       0x34 ./drivers/fsl_common.o
 .ARM.attributes
                0x00000618       0x34 ./drivers/fsl_dspi.o
 .ARM.attributes
                0x0000064c       0x34 ./drivers/fsl_ftm.o
 .ARM.attributes
                0x00000680       0x34 ./drivers/fsl_gpio.o
 .ARM.attributes
                0x000006b4       0x34 ./drivers/fsl_i2c.o
 .ARM.attributes
                0x000006e8       0x34 ./drivers/fsl_pit.o
 .ARM.attributes
                0x0000071c       0x34 ./drivers/fsl_uart.o
 .ARM.attributes
                0x00000750       0x34 ./drivers/fsl_vref.o
 .ARM.attributes
                0x00000784       0x34 ./device/system_MK22F51212.o
 .ARM.attributes
                0x000007b8       0x34 ./component/osa/fsl_os_abstraction_free_rtos.o
 .ARM.attributes
                0x000007ec       0x34 ./board/board.o
 .ARM.attributes
                0x00000820       0x34 ./board/clock_config.o
 .ARM.attributes
                0x00000854       0x34 ./board/peripherals.o
 .ARM.attributes
                0x00000888       0x34 ./board/pin_mux.o
 .ARM.attributes
                0x000008bc       0x34 c:/nxp/mcuxpressoide_11.2.1_4149/ide/plugins/com.nxp.mcuxpresso.tools.win32_11.2.0.202008311134/tools/bin/../lib/gcc/arm-none-eabi/9.2.1/../../../../arm-none-eabi/lib/thumb/v7e-m+fp/hard\libcr_semihost_nf.a(_cr__main.o)
 .ARM.attributes
                0x000008f0       0x34 c:/nxp/mcuxpressoide_11.2.1_4149/ide/plugins/com.nxp.mcuxpresso.tools.win32_11.2.0.202008311134/tools/bin/../lib/gcc/arm-none-eabi/9.2.1/../../../../arm-none-eabi/lib/thumb/v7e-m+fp/hard\libcr_c.a(memcpy.o)
 .ARM.attributes
                0x00000924       0x34 c:/nxp/mcuxpressoide_11.2.1_4149/ide/plugins/com.nxp.mcuxpresso.tools.win32_11.2.0.202008311134/tools/bin/../lib/gcc/arm-none-eabi/9.2.1/../../../../arm-none-eabi/lib/thumb/v7e-m+fp/hard\libcr_c.a(memset.o)
 .ARM.attributes
                0x00000958       0x34 c:/nxp/mcuxpressoide_11.2.1_4149/ide/plugins/com.nxp.mcuxpresso.tools.win32_11.2.0.202008311134/tools/bin/../lib/gcc/arm-none-eabi/9.2.1/../../../../arm-none-eabi/lib/thumb/v7e-m+fp/hard\libcr_c.a(alloc.o)
 .ARM.attributes
                0x0000098c       0x34 c:/nxp/mcuxpressoide_11.2.1_4149/ide/plugins/com.nxp.mcuxpresso.tools.win32_11.2.0.202008311134/tools/bin/../lib/gcc/arm-none-eabi/9.2.1/../../../../arm-none-eabi/lib/thumb/v7e-m+fp/hard\libcr_c.a(initio.o)
 .ARM.attributes
                0x000009c0       0x34 c:/nxp/mcuxpressoide_11.2.1_4149/ide/plugins/com.nxp.mcuxpresso.tools.win32_11.2.0.202008311134/tools/bin/../lib/gcc/arm-none-eabi/9.2.1/../../../../arm-none-eabi/lib/thumb/v7e-m+fp/hard\libcr_c.a(printf.o)
 .ARM.attributes
                0x000009f4       0x34 c:/nxp/mcuxpressoide_11.2.1_4149/ide/plugins/com.nxp.mcuxpresso.tools.win32_11.2.0.202008311134/tools/bin/../lib/gcc/arm-none-eabi/9.2.1/../../../../arm-none-eabi/lib/thumb/v7e-m+fp/hard\libcr_c.a(setvbuf.o)
 .ARM.attributes
                0x00000a28       0x34 c:/nxp/mcuxpressoide_11.2.1_4149/ide/plugins/com.nxp.mcuxpresso.tools.win32_11.2.0.202008311134/tools/bin/../lib/gcc/arm-none-eabi/9.2.1/../../../../arm-none-eabi/lib/thumb/v7e-m+fp/hard\libcr_c.a(strcpy.o)
 .ARM.attributes
                0x00000a5c       0x34 c:/nxp/mcuxpressoide_11.2.1_4149/ide/plugins/com.nxp.mcuxpresso.tools.win32_11.2.0.202008311134/tools/bin/../lib/gcc/arm-none-eabi/9.2.1/../../../../arm-none-eabi/lib/thumb/v7e-m+fp/hard\libcr_c.a(strlen.o)
 .ARM.attributes
                0x00000a90       0x34 c:/nxp/mcuxpressoide_11.2.1_4149/ide/plugins/com.nxp.mcuxpresso.tools.win32_11.2.0.202008311134/tools/bin/../lib/gcc/arm-none-eabi/9.2.1/../../../../arm-none-eabi/lib/thumb/v7e-m+fp/hard\libcr_c.a(__init_alloc.o)
 .ARM.attributes
                0x00000ac4       0x34 c:/nxp/mcuxpressoide_11.2.1_4149/ide/plugins/com.nxp.mcuxpresso.tools.win32_11.2.0.202008311134/tools/bin/../lib/gcc/arm-none-eabi/9.2.1/../../../../arm-none-eabi/lib/thumb/v7e-m+fp/hard\libcr_c.a(_cr_sbrk.o)
 .ARM.attributes
                0x00000af8       0x34 c:/nxp/mcuxpressoide_11.2.1_4149/ide/plugins/com.nxp.mcuxpresso.tools.win32_11.2.0.202008311134/tools/bin/../lib/gcc/arm-none-eabi/9.2.1/../../../../arm-none-eabi/lib/thumb/v7e-m+fp/hard\libcr_c.a(_deferredlazyseek.o)
 .ARM.attributes
                0x00000b2c       0x34 c:/nxp/mcuxpressoide_11.2.1_4149/ide/plugins/com.nxp.mcuxpresso.tools.win32_11.2.0.202008311134/tools/bin/../lib/gcc/arm-none-eabi/9.2.1/../../../../arm-none-eabi/lib/thumb/v7e-m+fp/hard\libcr_c.a(_fdopen.o)
 .ARM.attributes
                0x00000b60       0x34 c:/nxp/mcuxpressoide_11.2.1_4149/ide/plugins/com.nxp.mcuxpresso.tools.win32_11.2.0.202008311134/tools/bin/../lib/gcc/arm-none-eabi/9.2.1/../../../../arm-none-eabi/lib/thumb/v7e-m+fp/hard\libcr_c.a(_fflush.o)
 .ARM.attributes
                0x00000b94       0x34 c:/nxp/mcuxpressoide_11.2.1_4149/ide/plugins/com.nxp.mcuxpresso.tools.win32_11.2.0.202008311134/tools/bin/../lib/gcc/arm-none-eabi/9.2.1/../../../../arm-none-eabi/lib/thumb/v7e-m+fp/hard\libcr_c.a(_writebuf.o)
 .ARM.attributes
                0x00000bc8       0x39 c:/nxp/mcuxpressoide_11.2.1_4149/ide/plugins/com.nxp.mcuxpresso.tools.win32_11.2.0.202008311134/tools/bin/../lib/gcc/arm-none-eabi/9.2.1/../../../../arm-none-eabi/lib/thumb/v7e-m+fp/hard\libcr_c.a(errno.o)
 .ARM.attributes
                0x00000c01       0x34 c:/nxp/mcuxpressoide_11.2.1_4149/ide/plugins/com.nxp.mcuxpresso.tools.win32_11.2.0.202008311134/tools/bin/../lib/gcc/arm-none-eabi/9.2.1/../../../../arm-none-eabi/lib/thumb/v7e-m+fp/hard\libcr_c.a(fclose.o)
 .ARM.attributes
                0x00000c35       0x34 c:/nxp/mcuxpressoide_11.2.1_4149/ide/plugins/com.nxp.mcuxpresso.tools.win32_11.2.0.202008311134/tools/bin/../lib/gcc/arm-none-eabi/9.2.1/../../../../arm-none-eabi/lib/thumb/v7e-m+fp/hard\libcr_c.a(fflush.o)
 .ARM.attributes
                0x00000c69       0x34 c:/nxp/mcuxpressoide_11.2.1_4149/ide/plugins/com.nxp.mcuxpresso.tools.win32_11.2.0.202008311134/tools/bin/../lib/gcc/arm-none-eabi/9.2.1/../../../../arm-none-eabi/lib/thumb/v7e-m+fp/hard\libcr_c.a(fseek.o)
 .ARM.attributes
                0x00000c9d       0x34 c:/nxp/mcuxpressoide_11.2.1_4149/ide/plugins/com.nxp.mcuxpresso.tools.win32_11.2.0.202008311134/tools/bin/../lib/gcc/arm-none-eabi/9.2.1/../../../../arm-none-eabi/lib/thumb/v7e-m+fp/hard\libcr_c.a(ftell.o)
 .ARM.attributes
                0x00000cd1       0x34 c:/nxp/mcuxpressoide_11.2.1_4149/ide/plugins/com.nxp.mcuxpresso.tools.win32_11.2.0.202008311134/tools/bin/../lib/gcc/arm-none-eabi/9.2.1/../../../../arm-none-eabi/lib/thumb/v7e-m+fp/hard\libcr_c.a(remove.o)
 .ARM.attributes
                0x00000d05       0x34 c:/nxp/mcuxpressoide_11.2.1_4149/ide/plugins/com.nxp.mcuxpresso.tools.win32_11.2.0.202008311134/tools/bin/../lib/gcc/arm-none-eabi/9.2.1/../../../../arm-none-eabi/lib/thumb/v7e-m+fp/hard\libcr_c.a(_cr_check_heap.o)
 .ARM.attributes
                0x00000d39       0x34 c:/nxp/mcuxpressoide_11.2.1_4149/ide/plugins/com.nxp.mcuxpresso.tools.win32_11.2.0.202008311134/tools/bin/../lib/gcc/arm-none-eabi/9.2.1/../../../../arm-none-eabi/lib/thumb/v7e-m+fp/hard\libcr_c.a(_do_fflush.o)
 .ARM.attributes
                0x00000d6d       0x20 c:/nxp/mcuxpressoide_11.2.1_4149/ide/plugins/com.nxp.mcuxpresso.tools.win32_11.2.0.202008311134/tools/bin/../lib/gcc/arm-none-eabi/9.2.1/thumb/v7e-m+fp/hard\libcr_eabihelpers.a(division_64.o)
 .ARM.attributes
                0x00000d8d       0x20 c:/nxp/mcuxpressoide_11.2.1_4149/ide/plugins/com.nxp.mcuxpresso.tools.win32_11.2.0.202008311134/tools/bin/../lib/gcc/arm-none-eabi/9.2.1/thumb/v7e-m+fp/hard\libcr_eabihelpers.a(division_idiv0.o)
 .ARM.attributes
                0x00000dad       0x34 c:/nxp/mcuxpressoide_11.2.1_4149/ide/plugins/com.nxp.mcuxpresso.tools.win32_11.2.0.202008311134/tools/bin/../lib/gcc/arm-none-eabi/9.2.1/thumb/v7e-m+fp/hard\libcr_eabihelpers.a(double.o)
 .ARM.attributes
                0x00000de1       0x34 c:/nxp/mcuxpressoide_11.2.1_4149/ide/plugins/com.nxp.mcuxpresso.tools.win32_11.2.0.202008311134/tools/bin/../lib/gcc/arm-none-eabi/9.2.1/thumb/v7e-m+fp/hard\libcr_eabihelpers.a(float.o)
 .ARM.attributes
                0x00000e15       0x20 c:/nxp/mcuxpressoide_11.2.1_4149/ide/plugins/com.nxp.mcuxpresso.tools.win32_11.2.0.202008311134/tools/bin/../lib/gcc/arm-none-eabi/9.2.1/thumb/v7e-m+fp/hard\libcr_eabihelpers.a(memcpy.o)
 .ARM.attributes
                0x00000e35       0x39 c:/nxp/mcuxpressoide_11.2.1_4149/ide/plugins/com.nxp.mcuxpresso.tools.win32_11.2.0.202008311134/tools/bin/../lib/gcc/arm-none-eabi/9.2.1/../../../../arm-none-eabi/lib/thumb/v7e-m+fp/hard\libcr_semihost_nf.a(__ciob.o)
 .ARM.attributes
                0x00000e6e       0x20 c:/nxp/mcuxpressoide_11.2.1_4149/ide/plugins/com.nxp.mcuxpresso.tools.win32_11.2.0.202008311134/tools/bin/../lib/gcc/arm-none-eabi/9.2.1/../../../../arm-none-eabi/lib/thumb/v7e-m+fp/hard\libcr_semihost_nf.a(__sys_appexit.o)
 .ARM.attributes
                0x00000e8e       0x20 c:/nxp/mcuxpressoide_11.2.1_4149/ide/plugins/com.nxp.mcuxpresso.tools.win32_11.2.0.202008311134/tools/bin/../lib/gcc/arm-none-eabi/9.2.1/../../../../arm-none-eabi/lib/thumb/v7e-m+fp/hard\libcr_semihost_nf.a(__sys_close.o)
 .ARM.attributes
                0x00000eae       0x20 c:/nxp/mcuxpressoide_11.2.1_4149/ide/plugins/com.nxp.mcuxpresso.tools.win32_11.2.0.202008311134/tools/bin/../lib/gcc/arm-none-eabi/9.2.1/../../../../arm-none-eabi/lib/thumb/v7e-m+fp/hard\libcr_semihost_nf.a(__sys_flen.o)
 .ARM.attributes
                0x00000ece       0x20 c:/nxp/mcuxpressoide_11.2.1_4149/ide/plugins/com.nxp.mcuxpresso.tools.win32_11.2.0.202008311134/tools/bin/../lib/gcc/arm-none-eabi/9.2.1/../../../../arm-none-eabi/lib/thumb/v7e-m+fp/hard\libcr_semihost_nf.a(__sys_istty.o)
 .ARM.attributes
                0x00000eee       0x20 c:/nxp/mcuxpressoide_11.2.1_4149/ide/plugins/com.nxp.mcuxpresso.tools.win32_11.2.0.202008311134/tools/bin/../lib/gcc/arm-none-eabi/9.2.1/../../../../arm-none-eabi/lib/thumb/v7e-m+fp/hard\libcr_semihost_nf.a(__sys_remove.o)
 .ARM.attributes
                0x00000f0e       0x20 c:/nxp/mcuxpressoide_11.2.1_4149/ide/plugins/com.nxp.mcuxpresso.tools.win32_11.2.0.202008311134/tools/bin/../lib/gcc/arm-none-eabi/9.2.1/../../../../arm-none-eabi/lib/thumb/v7e-m+fp/hard\libcr_semihost_nf.a(__sys_seek.o)
 .ARM.attributes
                0x00000f2e       0x20 c:/nxp/mcuxpressoide_11.2.1_4149/ide/plugins/com.nxp.mcuxpresso.tools.win32_11.2.0.202008311134/tools/bin/../lib/gcc/arm-none-eabi/9.2.1/../../../../arm-none-eabi/lib/thumb/v7e-m+fp/hard\libcr_semihost_nf.a(__sys_tmpnam.o)
 .ARM.attributes
                0x00000f4e       0x20 c:/nxp/mcuxpressoide_11.2.1_4149/ide/plugins/com.nxp.mcuxpresso.tools.win32_11.2.0.202008311134/tools/bin/../lib/gcc/arm-none-eabi/9.2.1/../../../../arm-none-eabi/lib/thumb/v7e-m+fp/hard\libcr_semihost_nf.a(__sys_write.o)

.debug_frame    0x00000000     0x4ad8
 .debug_frame   0x00000000      0x1ac ./usb/device/source/khci/usb_device_khci.o
 .debug_frame   0x000001ac      0x1d4 ./usb/device/source/usb_device_ch9.o
 .debug_frame   0x00000380      0x1bc ./usb/device/source/usb_device_dci.o
 .debug_frame   0x0000053c      0x12c ./usb/device/class/cdc/usb_device_cdc_acm.o
 .debug_frame   0x00000668      0x140 ./usb/device/class/usb_device_class.o
 .debug_frame   0x000007a8      0x7e4 ./startup/startup_mk22f51212.o
 .debug_frame   0x00000f8c       0x68 ./source/usb/usb_device_descriptor.o
 .debug_frame   0x00000ff4      0x164 ./source/usb/virtual_com.o
 .debug_frame   0x00001158      0x338 ./source/Tracealyzer/streamports/Jlink_RTT/SEGGER_RTT.o
 .debug_frame   0x00001490       0x40 ./source/Tracealyzer/streamports/Jlink_RTT/trcStreamingPort.o
 .debug_frame   0x000014d0      0x214 ./source/Tracealyzer/trcKernelPort.o
 .debug_frame   0x000016e4      0x4d8 ./source/Tracealyzer/trcStreamingRecorder.o
 .debug_frame   0x00001bbc       0x60 ./source/BRDUINO_Nano.o
 .debug_frame   0x00001c1c       0x5c ./source/CmdInfo.o
 .debug_frame   0x00001c78      0x158 ./source/CmdSystem.o
 .debug_frame   0x00001dd0       0xe8 ./source/CommandHandler.o
 .debug_frame   0x00001eb8      0x14c ./source/Misc.o
 .debug_frame   0x00002004       0x30 ./source/System.o
 .debug_frame   0x00002034       0x5c ./source/crc.o
 .debug_frame   0x00002090       0x20 ./source/semihost_hardfault.o
 .debug_frame   0x000020b0      0x2d4 ./source/uart.o
 .debug_frame   0x00002384       0xc8 ./freertos/freertos_kernel/portable/MemMang/heap_4.o
 .debug_frame   0x0000244c       0xfc ./freertos/freertos_kernel/portable/GCC/ARM_CM4F/port.o
 .debug_frame   0x00002548       0x6c ./freertos/freertos_kernel/list.o
 .debug_frame   0x000025b4      0x3bc ./freertos/freertos_kernel/queue.o
 .debug_frame   0x00002970      0x64c ./freertos/freertos_kernel/tasks.o
 .debug_frame   0x00002fbc      0x238 ./freertos/freertos_kernel/timers.o
 .debug_frame   0x000031f4       0xe8 ./drivers/fsl_adc16.o
 .debug_frame   0x000032dc      0x4e8 ./drivers/fsl_clock.o
 .debug_frame   0x000037c4       0x54 ./drivers/fsl_common.o
 .debug_frame   0x00003818      0x3bc ./drivers/fsl_dspi.o
 .debug_frame   0x00003bd4      0x1e0 ./drivers/fsl_ftm.o
 .debug_frame   0x00003db4       0x40 ./drivers/fsl_gpio.o
 .debug_frame   0x00003df4      0x3c0 ./drivers/fsl_i2c.o
 .debug_frame   0x000041b4       0x38 ./drivers/fsl_pit.o
 .debug_frame   0x000041ec      0x2e4 ./drivers/fsl_uart.o
 .debug_frame   0x000044d0       0x58 ./drivers/fsl_vref.o
 .debug_frame   0x00004528       0x48 ./device/system_MK22F51212.o
 .debug_frame   0x00004570      0x2d8 ./component/osa/fsl_os_abstraction_free_rtos.o
 .debug_frame   0x00004848      0x1e4 ./board/board.o
 .debug_frame   0x00004a2c       0x4c ./board/clock_config.o
 .debug_frame   0x00004a78       0x30 ./board/peripherals.o
 .debug_frame   0x00004aa8       0x30 ./board/pin_mux.o

Cross Reference Table

Symbol                                            File
ADC0_DriverIRQHandler                             ./startup/startup_mk22f51212.o
ADC0_IRQHandler                                   ./board/board.o
                                                  ./startup/startup_mk22f51212.o
ADC16_ClearStatusFlags                            ./drivers/fsl_adc16.o
ADC16_Deinit                                      ./drivers/fsl_adc16.o
ADC16_DoAutoCalibration                           ./drivers/fsl_adc16.o
                                                  ./board/board.o
ADC16_GetChannelStatusFlags                       ./drivers/fsl_adc16.o
ADC16_GetDefaultConfig                            ./drivers/fsl_adc16.o
ADC16_GetStatusFlags                              ./drivers/fsl_adc16.o
ADC16_Init                                        ./drivers/fsl_adc16.o
                                                  ./board/board.o
ADC16_SetChannelConfig                            ./drivers/fsl_adc16.o
                                                  ./board/board.o
ADC16_SetChannelMuxMode                           ./drivers/fsl_adc16.o
                                                  ./board/board.o
ADC16_SetHardwareAverage                          ./drivers/fsl_adc16.o
ADC16_SetHardwareCompareConfig                    ./drivers/fsl_adc16.o
ADC1_DriverIRQHandler                             ./startup/startup_mk22f51212.o
ADC1_IRQHandler                                   ./startup/startup_mk22f51212.o
APPTask                                           ./source/usb/virtual_com.o
BOARD_BootClockRUN                                ./board/clock_config.o
BOARD_GetGPIOpin                                  ./board/board.o
BOARD_GetJiffyCounter                             ./board/board.o
BOARD_GetOwnAddress                               ./board/board.o
                                                  ./source/CommandHandler.o
                                                  ./source/CmdSystem.o
                                                  ./source/CmdInfo.o
BOARD_Init                                        ./board/board.o
                                                  ./source/BRDUINO_Nano.o
BOARD_InitBootClocks                              ./board/clock_config.o
                                                  ./source/BRDUINO_Nano.o
BOARD_InitBootPeripherals                         ./board/peripherals.o
                                                  ./source/BRDUINO_Nano.o
BOARD_InitBootPins                                ./board/pin_mux.o
                                                  ./source/BRDUINO_Nano.o
BOARD_InitDebugConsole                            ./board/board.o
BOARD_InitFTM0                                    ./board/board.o
BOARD_InitFTM1                                    ./board/board.o
BOARD_InitFTM2                                    ./board/board.o
BOARD_InitPIT                                     ./board/board.o
BOARD_InitPeripherals                             ./board/peripherals.o
BOARD_InitPins                                    ./board/pin_mux.o
BOARD_InitVREF                                    ./board/board.o
BOARD_SetGPIOpin                                  ./board/board.o
                                                  ./source/uart.o
BOARD_SetOwnAddress                               ./board/board.o
                                                  ./source/CmdSystem.o
BOARD_get_ADC                                     ./board/board.o
                                                  ./source/CmdSystem.o
BOARD_get_ADC_float                               ./board/board.o
                                                  ./source/CmdSystem.o
BOARD_get_DAC                                     ./board/board.o
BOARD_set_DAC                                     ./board/board.o
BusFault_Handler                                  ./startup/startup_mk22f51212.o
CLOCK_BootToBlpeMode                              ./drivers/fsl_clock.o
CLOCK_BootToBlpiMode                              ./drivers/fsl_clock.o
CLOCK_BootToFeeMode                               ./drivers/fsl_clock.o
                                                  ./board/clock_config.o
CLOCK_BootToFeiMode                               ./drivers/fsl_clock.o
CLOCK_BootToPeeMode                               ./drivers/fsl_clock.o
CLOCK_CalcPllDiv                                  ./drivers/fsl_clock.o
CLOCK_ClearStatusFlags                            ./drivers/fsl_clock.o
CLOCK_DeinitOsc0                                  ./drivers/fsl_clock.o
CLOCK_EnablePll0                                  ./drivers/fsl_clock.o
CLOCK_EnableUsbfs0Clock                           ./drivers/fsl_clock.o
                                                  ./board/clock_config.o
                                                  ./source/usb/virtual_com.o
CLOCK_ExternalModeToFbeModeQuick                  ./drivers/fsl_clock.o
CLOCK_GetBusClkFreq                               ./drivers/fsl_clock.o
                                                  ./board/board.o
                                                  ./source/uart.o
CLOCK_GetCoreSysClkFreq                           ./drivers/fsl_clock.o
                                                  ./source/uart.o
CLOCK_GetEr32kClkFreq                             ./drivers/fsl_clock.o
CLOCK_GetFixedFreqClkFreq                         ./drivers/fsl_clock.o
CLOCK_GetFlashClkFreq                             ./drivers/fsl_clock.o
CLOCK_GetFlexBusClkFreq                           ./drivers/fsl_clock.o
CLOCK_GetFllFreq                                  ./drivers/fsl_clock.o
CLOCK_GetFreq                                     ./drivers/fsl_clock.o
                                                  ./board/board.o
                                                  ./source/CmdSystem.o
                                                  ./source/BRDUINO_Nano.o
CLOCK_GetInternalRefClkFreq                       ./drivers/fsl_clock.o
CLOCK_GetMode                                     ./drivers/fsl_clock.o
CLOCK_GetOsc0ErClkDivFreq                         ./drivers/fsl_clock.o
CLOCK_GetOsc0ErClkFreq                            ./drivers/fsl_clock.o
CLOCK_GetOsc0ErClkUndivFreq                       ./drivers/fsl_clock.o
CLOCK_GetOutClkFreq                               ./drivers/fsl_clock.o
CLOCK_GetPlatClkFreq                              ./drivers/fsl_clock.o
CLOCK_GetPll0Freq                                 ./drivers/fsl_clock.o
CLOCK_GetPllFllSelClkFreq                         ./drivers/fsl_clock.o
CLOCK_GetStatusFlags                              ./drivers/fsl_clock.o
CLOCK_InitOsc0                                    ./drivers/fsl_clock.o
CLOCK_InternalModeToFbiModeQuick                  ./drivers/fsl_clock.o
CLOCK_SetBlpeMode                                 ./drivers/fsl_clock.o
CLOCK_SetBlpiMode                                 ./drivers/fsl_clock.o
CLOCK_SetExternalRefClkConfig                     ./drivers/fsl_clock.o
CLOCK_SetFastIrcFreq                              ./drivers/fsl_clock.o
CLOCK_SetFbeMode                                  ./drivers/fsl_clock.o
CLOCK_SetFbiMode                                  ./drivers/fsl_clock.o
CLOCK_SetFeeMode                                  ./drivers/fsl_clock.o
CLOCK_SetFeiMode                                  ./drivers/fsl_clock.o
CLOCK_SetInternalRefClkConfig                     ./drivers/fsl_clock.o
CLOCK_SetMcgConfig                                ./drivers/fsl_clock.o
CLOCK_SetOsc0MonitorMode                          ./drivers/fsl_clock.o
CLOCK_SetPbeMode                                  ./drivers/fsl_clock.o
CLOCK_SetPeeMode                                  ./drivers/fsl_clock.o
CLOCK_SetPll0MonitorMode                          ./drivers/fsl_clock.o
CLOCK_SetRtcOscMonitorMode                        ./drivers/fsl_clock.o
CLOCK_SetSimConfig                                ./drivers/fsl_clock.o
                                                  ./board/clock_config.o
CLOCK_SetSlowIrcFreq                              ./drivers/fsl_clock.o
CLOCK_TrimInternalRefClk                          ./drivers/fsl_clock.o
CMP0_DriverIRQHandler                             ./startup/startup_mk22f51212.o
CMP0_IRQHandler                                   ./startup/startup_mk22f51212.o
CMP1_DriverIRQHandler                             ./startup/startup_mk22f51212.o
CMP1_IRQHandler                                   ./startup/startup_mk22f51212.o
CRC_Cal_16                                        ./source/crc.o
                                                  ./source/uart.o
                                                  ./source/CommandHandler.o
                                                  ./source/usb/virtual_com.o
CRC_Config                                        ./source/crc.o
                                                  ./source/uart.o
                                                  ./source/CommandHandler.o
                                                  ./source/usb/virtual_com.o
CRC_Get16bitResult                                ./drivers/fsl_crc.o
CRC_Get32bitResult                                ./drivers/fsl_crc.o
CRC_GetDefaultConfig                              ./drivers/fsl_crc.o
CRC_Init                                          ./drivers/fsl_crc.o
CRC_WriteData                                     ./drivers/fsl_crc.o
CRC_init                                          ./source/crc.o
                                                  ./board/board.o
ChangeUARTParameters                              ./source/uart.o
CheckCmdIF                                        ./source/uart.o
CommandHandler                                    ./source/CommandHandler.o
                                                  ./source/BRDUINO_Nano.o
CommunicationTask                                 ./source/BRDUINO_Nano.o
CurrentFilterGroup                                ./source/Tracealyzer/trcStreamingRecorder.o
                                                  ./freertos/freertos_kernel/tasks.o
                                                  ./freertos/freertos_kernel/queue.o
CurrentFilterMask                                 ./source/Tracealyzer/trcStreamingRecorder.o
                                                  ./freertos/freertos_kernel/tasks.o
                                                  ./freertos/freertos_kernel/queue.o
                                                  ./freertos/freertos_kernel/portable/MemMang/heap_4.o
DAC0_DriverIRQHandler                             ./startup/startup_mk22f51212.o
DAC0_IRQHandler                                   ./startup/startup_mk22f51212.o
DAC1_DriverIRQHandler                             ./startup/startup_mk22f51212.o
DAC1_IRQHandler                                   ./startup/startup_mk22f51212.o
DAC_ClearBufferStatusFlags                        ./drivers/fsl_dac.o
DAC_Deinit                                        ./drivers/fsl_dac.o
DAC_DisableBufferInterrupts                       ./drivers/fsl_dac.o
DAC_EnableBufferInterrupts                        ./drivers/fsl_dac.o
DAC_GetBufferStatusFlags                          ./drivers/fsl_dac.o
DAC_GetDefaultBufferConfig                        ./drivers/fsl_dac.o
DAC_GetDefaultConfig                              ./drivers/fsl_dac.o
DAC_Init                                          ./drivers/fsl_dac.o
DAC_SetBufferConfig                               ./drivers/fsl_dac.o
DAC_SetBufferReadPointer                          ./drivers/fsl_dac.o
DAC_SetBufferValue                                ./drivers/fsl_dac.o
DMA0_DriverIRQHandler                             ./startup/startup_mk22f51212.o
DMA0_IRQHandler                                   ./startup/startup_mk22f51212.o
DMA10_DriverIRQHandler                            ./startup/startup_mk22f51212.o
DMA10_IRQHandler                                  ./startup/startup_mk22f51212.o
DMA11_DriverIRQHandler                            ./startup/startup_mk22f51212.o
DMA11_IRQHandler                                  ./startup/startup_mk22f51212.o
DMA12_DriverIRQHandler                            ./startup/startup_mk22f51212.o
DMA12_IRQHandler                                  ./startup/startup_mk22f51212.o
DMA13_DriverIRQHandler                            ./startup/startup_mk22f51212.o
DMA13_IRQHandler                                  ./startup/startup_mk22f51212.o
DMA14_DriverIRQHandler                            ./startup/startup_mk22f51212.o
DMA14_IRQHandler                                  ./startup/startup_mk22f51212.o
DMA15_DriverIRQHandler                            ./startup/startup_mk22f51212.o
DMA15_IRQHandler                                  ./startup/startup_mk22f51212.o
DMA1_DriverIRQHandler                             ./startup/startup_mk22f51212.o
DMA1_IRQHandler                                   ./startup/startup_mk22f51212.o
DMA2_DriverIRQHandler                             ./startup/startup_mk22f51212.o
DMA2_IRQHandler                                   ./startup/startup_mk22f51212.o
DMA3_DriverIRQHandler                             ./startup/startup_mk22f51212.o
DMA3_IRQHandler                                   ./startup/startup_mk22f51212.o
DMA4_DriverIRQHandler                             ./startup/startup_mk22f51212.o
DMA4_IRQHandler                                   ./startup/startup_mk22f51212.o
DMA5_DriverIRQHandler                             ./startup/startup_mk22f51212.o
DMA5_IRQHandler                                   ./startup/startup_mk22f51212.o
DMA6_DriverIRQHandler                             ./startup/startup_mk22f51212.o
DMA6_IRQHandler                                   ./startup/startup_mk22f51212.o
DMA7_DriverIRQHandler                             ./startup/startup_mk22f51212.o
DMA7_IRQHandler                                   ./startup/startup_mk22f51212.o
DMA8_DriverIRQHandler                             ./startup/startup_mk22f51212.o
DMA8_IRQHandler                                   ./startup/startup_mk22f51212.o
DMA9_DriverIRQHandler                             ./startup/startup_mk22f51212.o
DMA9_IRQHandler                                   ./startup/startup_mk22f51212.o
DMA_Error_DriverIRQHandler                        ./startup/startup_mk22f51212.o
DMA_Error_IRQHandler                              ./startup/startup_mk22f51212.o
DSPI_Deinit                                       ./drivers/fsl_dspi.o
DSPI_EnableInterrupts                             ./drivers/fsl_dspi.o
DSPI_GetDefaultDataCommandConfig                  ./drivers/fsl_dspi.o
DSPI_GetDummyDataInstance                         ./drivers/fsl_dspi.o
DSPI_GetInstance                                  ./drivers/fsl_dspi.o
DSPI_MasterGetDefaultConfig                       ./drivers/fsl_dspi.o
DSPI_MasterHalfDuplexTransferBlocking             ./drivers/fsl_dspi.o
DSPI_MasterHalfDuplexTransferNonBlocking          ./drivers/fsl_dspi.o
DSPI_MasterInit                                   ./drivers/fsl_dspi.o
DSPI_MasterSetBaudRate                            ./drivers/fsl_dspi.o
DSPI_MasterSetDelayScaler                         ./drivers/fsl_dspi.o
DSPI_MasterSetDelayTimes                          ./drivers/fsl_dspi.o
DSPI_MasterTransferAbort                          ./drivers/fsl_dspi.o
DSPI_MasterTransferBlocking                       ./drivers/fsl_dspi.o
DSPI_MasterTransferCreateHandle                   ./drivers/fsl_dspi.o
DSPI_MasterTransferGetCount                       ./drivers/fsl_dspi.o
DSPI_MasterTransferHandleIRQ                      ./drivers/fsl_dspi.o
DSPI_MasterTransferNonBlocking                    ./drivers/fsl_dspi.o
DSPI_MasterWriteCommandDataBlocking               ./drivers/fsl_dspi.o
DSPI_MasterWriteDataBlocking                      ./drivers/fsl_dspi.o
DSPI_SetDummyData                                 ./drivers/fsl_dspi.o
DSPI_SlaveGetDefaultConfig                        ./drivers/fsl_dspi.o
DSPI_SlaveInit                                    ./drivers/fsl_dspi.o
DSPI_SlaveTransferAbort                           ./drivers/fsl_dspi.o
DSPI_SlaveTransferCreateHandle                    ./drivers/fsl_dspi.o
DSPI_SlaveTransferGetCount                        ./drivers/fsl_dspi.o
DSPI_SlaveTransferHandleIRQ                       ./drivers/fsl_dspi.o
DSPI_SlaveTransferNonBlocking                     ./drivers/fsl_dspi.o
DSPI_SlaveWriteDataBlocking                       ./drivers/fsl_dspi.o
DebugMon_Handler                                  ./startup/startup_mk22f51212.o
DroppedEventCounter                               ./source/Tracealyzer/trcStreamingRecorder.o
EventBuffer                                       ./source/Tracealyzer/trcStreamingRecorder.o
FLASH_Erase                                       ./drivers/fsl_ftfx_flash.o
FLASH_EraseAll                                    ./drivers/fsl_ftfx_flash.o
FLASH_GetProperty                                 ./drivers/fsl_ftfx_flash.o
FLASH_GetSecurityState                            ./drivers/fsl_ftfx_flash.o
FLASH_Init                                        ./drivers/fsl_ftfx_flash.o
FLASH_IsExecuteOnly                               ./drivers/fsl_ftfx_flash.o
FLASH_IsProtected                                 ./drivers/fsl_ftfx_flash.o
FLASH_PflashGetProtection                         ./drivers/fsl_ftfx_flash.o
FLASH_PflashSetProtection                         ./drivers/fsl_ftfx_flash.o
FLASH_Program                                     ./drivers/fsl_ftfx_flash.o
FLASH_ProgramOnce                                 ./drivers/fsl_ftfx_flash.o
FLASH_ReadOnce                                    ./drivers/fsl_ftfx_flash.o
FLASH_ReadResource                                ./drivers/fsl_ftfx_flash.o
FLASH_SecurityBypass                              ./drivers/fsl_ftfx_flash.o
FLASH_VerifyErase                                 ./drivers/fsl_ftfx_flash.o
FLASH_VerifyEraseAll                              ./drivers/fsl_ftfx_flash.o
FLASH_VerifyProgram                               ./drivers/fsl_ftfx_flash.o
FTF_DriverIRQHandler                              ./startup/startup_mk22f51212.o
FTF_IRQHandler                                    ./startup/startup_mk22f51212.o
FTFx_API_Init                                     ./drivers/fsl_ftfx_controller.o
                                                  ./drivers/fsl_ftfx_flash.o
FTFx_CACHE_ClearCachePrefetchSpeculation          ./drivers/fsl_ftfx_cache.o
FTFx_CACHE_Init                                   ./drivers/fsl_ftfx_cache.o
FTFx_CACHE_PflashGetPrefetchSpeculation           ./drivers/fsl_ftfx_cache.o
FTFx_CACHE_PflashSetPrefetchSpeculation           ./drivers/fsl_ftfx_cache.o
FTFx_CMD_Erase                                    ./drivers/fsl_ftfx_controller.o
                                                  ./drivers/fsl_ftfx_flash.o
FTFx_CMD_EraseAll                                 ./drivers/fsl_ftfx_controller.o
                                                  ./drivers/fsl_ftfx_flash.o
FTFx_CMD_EraseAllExecuteOnlySegments              ./drivers/fsl_ftfx_controller.o
FTFx_CMD_Program                                  ./drivers/fsl_ftfx_controller.o
                                                  ./drivers/fsl_ftfx_flash.o
FTFx_CMD_ProgramOnce                              ./drivers/fsl_ftfx_controller.o
                                                  ./drivers/fsl_ftfx_flash.o
FTFx_CMD_ReadOnce                                 ./drivers/fsl_ftfx_controller.o
                                                  ./drivers/fsl_ftfx_flash.o
FTFx_CMD_ReadResource                             ./drivers/fsl_ftfx_controller.o
                                                  ./drivers/fsl_ftfx_flash.o
FTFx_CMD_SecurityBypass                           ./drivers/fsl_ftfx_controller.o
                                                  ./drivers/fsl_ftfx_flash.o
FTFx_CMD_VerifyErase                              ./drivers/fsl_ftfx_controller.o
                                                  ./drivers/fsl_ftfx_flash.o
FTFx_CMD_VerifyEraseAll                           ./drivers/fsl_ftfx_controller.o
                                                  ./drivers/fsl_ftfx_flash.o
FTFx_CMD_VerifyEraseAllExecuteOnlySegments        ./drivers/fsl_ftfx_controller.o
FTFx_CMD_VerifyProgram                            ./drivers/fsl_ftfx_controller.o
                                                  ./drivers/fsl_ftfx_flash.o
FTFx_REG_GetSecurityState                         ./drivers/fsl_ftfx_controller.o
                                                  ./drivers/fsl_ftfx_flash.o
FTM0_DriverIRQHandler                             ./startup/startup_mk22f51212.o
FTM0_IRQHandler                                   ./board/board.o
                                                  ./startup/startup_mk22f51212.o
FTM1_DriverIRQHandler                             ./startup/startup_mk22f51212.o
FTM1_IRQHandler                                   ./board/board.o
                                                  ./startup/startup_mk22f51212.o
FTM2_DriverIRQHandler                             ./startup/startup_mk22f51212.o
FTM2_IRQHandler                                   ./board/board.o
                                                  ./startup/startup_mk22f51212.o
FTM3_DriverIRQHandler                             ./startup/startup_mk22f51212.o
FTM3_IRQHandler                                   ./startup/startup_mk22f51212.o
FTM_ClearStatusFlags                              ./drivers/fsl_ftm.o
FTM_Deinit                                        ./drivers/fsl_ftm.o
FTM_DisableInterrupts                             ./drivers/fsl_ftm.o
FTM_EnableInterrupts                              ./drivers/fsl_ftm.o
FTM_GetDefaultConfig                              ./drivers/fsl_ftm.o
                                                  ./board/board.o
FTM_GetEnabledInterrupts                          ./drivers/fsl_ftm.o
FTM_GetStatusFlags                                ./drivers/fsl_ftm.o
FTM_Init                                          ./drivers/fsl_ftm.o
                                                  ./board/board.o
FTM_SetupDualEdgeCapture                          ./drivers/fsl_ftm.o
FTM_SetupFault                                    ./drivers/fsl_ftm.o
FTM_SetupInputCapture                             ./drivers/fsl_ftm.o
FTM_SetupOutputCompare                            ./drivers/fsl_ftm.o
FTM_SetupPwm                                      ./drivers/fsl_ftm.o
                                                  ./board/board.o
FTM_SetupPwmMode                                  ./drivers/fsl_ftm.o
FTM_SetupQuadDecode                               ./drivers/fsl_ftm.o
FTM_UpdateChnlEdgeLevelSelect                     ./drivers/fsl_ftm.o
                                                  ./board/board.o
FTM_UpdatePwmDutycycle                            ./drivers/fsl_ftm.o
Flash_Config                                      ./startup/startup_mk22f51212.o
GPIO_PinInit                                      ./drivers/fsl_gpio.o
                                                  ./board/board.o
GPIO_PortClearInterruptFlags                      ./drivers/fsl_gpio.o
GPIO_PortGetInterruptFlags                        ./drivers/fsl_gpio.o
GetBitNumber                                      ./source/Misc.o
GetBitPositionInArray                             ./source/Misc.o
GetIFdescriptorPtr                                ./source/uart.o
GetSelectCmdIF                                    ./source/uart.o
GetSelectCmdIFnr                                  ./source/uart.o
GetSysclkTimer                                    ./source/Misc.o
GetSysclkTimerHandle                              ./source/Misc.o
GetSystemDeviceType                               ./source/System.o
                                                  ./source/CmdSystem.o
GetSystemInfoStructPtr                            ./source/System.o
                                                  ./source/CmdInfo.o
GetUARTdescriptor                                 ./source/uart.o
GetUARTdescriptorFromPtr                          ./source/uart.o
                                                  ./board/board.o
GetUARTfromIF                                     ./source/uart.o
GetUARTfunction                                   ./source/uart.o
GetVal_Float                                      ./source/Misc.o
GetVal_FloatB                                     ./source/Misc.o
HardFault_Handler                                 ./source/semihost_hardfault.o
                                                  ./startup/startup_mk22f51212.o
I2C0_DriverIRQHandler                             ./drivers/fsl_i2c.o
                                                  ./startup/startup_mk22f51212.o
I2C0_IRQHandler                                   ./startup/startup_mk22f51212.o
I2C1_DriverIRQHandler                             ./drivers/fsl_i2c.o
                                                  ./startup/startup_mk22f51212.o
I2C1_IRQHandler                                   ./startup/startup_mk22f51212.o
I2C_DisableInterrupts                             ./drivers/fsl_i2c.o
I2C_EnableInterrupts                              ./drivers/fsl_i2c.o
I2C_GetInstance                                   ./drivers/fsl_i2c.o
I2C_MasterDeinit                                  ./drivers/fsl_i2c.o
I2C_MasterGetDefaultConfig                        ./drivers/fsl_i2c.o
I2C_MasterGetStatusFlags                          ./drivers/fsl_i2c.o
I2C_MasterInit                                    ./drivers/fsl_i2c.o
I2C_MasterReadBlocking                            ./drivers/fsl_i2c.o
I2C_MasterRepeatedStart                           ./drivers/fsl_i2c.o
I2C_MasterSetBaudRate                             ./drivers/fsl_i2c.o
I2C_MasterStart                                   ./drivers/fsl_i2c.o
I2C_MasterStop                                    ./drivers/fsl_i2c.o
I2C_MasterTransferAbort                           ./drivers/fsl_i2c.o
I2C_MasterTransferBlocking                        ./drivers/fsl_i2c.o
I2C_MasterTransferCreateHandle                    ./drivers/fsl_i2c.o
I2C_MasterTransferGetCount                        ./drivers/fsl_i2c.o
I2C_MasterTransferHandleIRQ                       ./drivers/fsl_i2c.o
I2C_MasterTransferNonBlocking                     ./drivers/fsl_i2c.o
I2C_MasterWriteBlocking                           ./drivers/fsl_i2c.o
I2C_SlaveDeinit                                   ./drivers/fsl_i2c.o
I2C_SlaveGetDefaultConfig                         ./drivers/fsl_i2c.o
I2C_SlaveInit                                     ./drivers/fsl_i2c.o
I2C_SlaveReadBlocking                             ./drivers/fsl_i2c.o
I2C_SlaveTransferAbort                            ./drivers/fsl_i2c.o
I2C_SlaveTransferCreateHandle                     ./drivers/fsl_i2c.o
I2C_SlaveTransferGetCount                         ./drivers/fsl_i2c.o
I2C_SlaveTransferHandleIRQ                        ./drivers/fsl_i2c.o
I2C_SlaveTransferNonBlocking                      ./drivers/fsl_i2c.o
I2C_SlaveWriteBlocking                            ./drivers/fsl_i2c.o
I2S0_Rx_DriverIRQHandler                          ./startup/startup_mk22f51212.o
I2S0_Rx_IRQHandler                                ./startup/startup_mk22f51212.o
I2S0_Tx_DriverIRQHandler                          ./startup/startup_mk22f51212.o
I2S0_Tx_IRQHandler                                ./startup/startup_mk22f51212.o
InfoCommandHandler                                ./source/CmdInfo.o
                                                  ./source/CommandHandler.o
InitCommandHandler                                ./source/CommandHandler.o
                                                  ./source/BRDUINO_Nano.o
InitInfoCommandHandler                            ./source/CmdInfo.o
InitSystemCommandHandler                          ./source/CmdSystem.o
IntDefaultHandler                                 ./startup/startup_mk22f51212.o
LIST_AddHead                                      ./component/lists/generic_list.o
LIST_AddPrevElement                               ./component/lists/generic_list.o
LIST_AddTail                                      ./component/lists/generic_list.o
LIST_GetAvailableSize                             ./component/lists/generic_list.o
LIST_GetHead                                      ./component/lists/generic_list.o
LIST_GetList                                      ./component/lists/generic_list.o
LIST_GetNext                                      ./component/lists/generic_list.o
LIST_GetPrev                                      ./component/lists/generic_list.o
LIST_GetSize                                      ./component/lists/generic_list.o
LIST_Init                                         ./component/lists/generic_list.o
LIST_RemoveElement                                ./component/lists/generic_list.o
LIST_RemoveHead                                   ./component/lists/generic_list.o
LLWU_DriverIRQHandler                             ./startup/startup_mk22f51212.o
LLWU_IRQHandler                                   ./startup/startup_mk22f51212.o
LPTMR0_DriverIRQHandler                           ./startup/startup_mk22f51212.o
LPTMR0_IRQHandler                                 ./startup/startup_mk22f51212.o
LPUART0_DriverIRQHandler                          ./startup/startup_mk22f51212.o
LPUART0_IRQHandler                                ./startup/startup_mk22f51212.o
LVD_LVW_DriverIRQHandler                          ./startup/startup_mk22f51212.o
LVD_LVW_IRQHandler                                ./startup/startup_mk22f51212.o
LongestSymbolName                                 ./source/Tracealyzer/trcStreamingRecorder.o
                                                  ./source/Tracealyzer/trcKernelPort.o
MCG_DriverIRQHandler                              ./startup/startup_mk22f51212.o
MCG_IRQHandler                                    ./startup/startup_mk22f51212.o
MCM_DriverIRQHandler                              ./startup/startup_mk22f51212.o
MCM_IRQHandler                                    ./startup/startup_mk22f51212.o
MakeCommandHeader                                 ./source/Misc.o
                                                  ./source/CommandHandler.o
                                                  ./source/CmdSystem.o
                                                  ./source/CmdInfo.o
MaxBytesTruncated                                 ./source/Tracealyzer/trcStreamingRecorder.o
                                                  ./source/Tracealyzer/trcKernelPort.o
MemManage_Handler                                 ./startup/startup_mk22f51212.o
MyWrapper                                         ./freertos/freertos_kernel/queue.o
NMI_Handler                                       ./startup/startup_mk22f51212.o
NoRoomForObjectData                               ./source/Tracealyzer/trcStreamingRecorder.o
                                                  ./source/Tracealyzer/trcKernelPort.o
NoRoomForSymbol                                   ./source/Tracealyzer/trcStreamingRecorder.o
                                                  ./source/Tracealyzer/trcKernelPort.o
OSA_DisableIRQGlobal                              ./component/osa/fsl_os_abstraction_free_rtos.o
OSA_EnableIRQGlobal                               ./component/osa/fsl_os_abstraction_free_rtos.o
OSA_EnterCritical                                 ./component/osa/fsl_os_abstraction_free_rtos.o
                                                  ./usb/device/class/usb_device_class.o
                                                  ./usb/device/source/usb_device_dci.o
                                                  ./usb/device/source/khci/usb_device_khci.o
OSA_EventClear                                    ./component/osa/fsl_os_abstraction_free_rtos.o
OSA_EventCreate                                   ./component/osa/fsl_os_abstraction_free_rtos.o
OSA_EventDestroy                                  ./component/osa/fsl_os_abstraction_free_rtos.o
OSA_EventGet                                      ./component/osa/fsl_os_abstraction_free_rtos.o
OSA_EventSet                                      ./component/osa/fsl_os_abstraction_free_rtos.o
OSA_EventWait                                     ./component/osa/fsl_os_abstraction_free_rtos.o
OSA_ExitCritical                                  ./component/osa/fsl_os_abstraction_free_rtos.o
                                                  ./usb/device/class/usb_device_class.o
                                                  ./usb/device/source/usb_device_dci.o
                                                  ./usb/device/source/khci/usb_device_khci.o
OSA_InstallIntHandler                             ./component/osa/fsl_os_abstraction_free_rtos.o
OSA_InterruptDisable                              ./component/osa/fsl_os_abstraction_free_rtos.o
OSA_InterruptEnable                               ./component/osa/fsl_os_abstraction_free_rtos.o
OSA_MemoryAllocate                                ./component/osa/fsl_os_abstraction_free_rtos.o
OSA_MemoryFree                                    ./component/osa/fsl_os_abstraction_free_rtos.o
OSA_MsgQCreate                                    ./component/osa/fsl_os_abstraction_free_rtos.o
OSA_MsgQDestroy                                   ./component/osa/fsl_os_abstraction_free_rtos.o
OSA_MsgQGet                                       ./component/osa/fsl_os_abstraction_free_rtos.o
OSA_MsgQPut                                       ./component/osa/fsl_os_abstraction_free_rtos.o
OSA_MutexCreate                                   ./component/osa/fsl_os_abstraction_free_rtos.o
                                                  ./usb/device/class/cdc/usb_device_cdc_acm.o
OSA_MutexDestroy                                  ./component/osa/fsl_os_abstraction_free_rtos.o
                                                  ./usb/device/class/cdc/usb_device_cdc_acm.o
OSA_MutexLock                                     ./component/osa/fsl_os_abstraction_free_rtos.o
OSA_MutexUnlock                                   ./component/osa/fsl_os_abstraction_free_rtos.o
OSA_SemaphoreCreate                               ./component/osa/fsl_os_abstraction_free_rtos.o
OSA_SemaphoreDestroy                              ./component/osa/fsl_os_abstraction_free_rtos.o
OSA_SemaphorePost                                 ./component/osa/fsl_os_abstraction_free_rtos.o
OSA_SemaphoreWait                                 ./component/osa/fsl_os_abstraction_free_rtos.o
OSA_TimeDelay                                     ./component/osa/fsl_os_abstraction_free_rtos.o
OSA_TimeGetMsec                                   ./component/osa/fsl_os_abstraction_free_rtos.o
PDB0_DriverIRQHandler                             ./startup/startup_mk22f51212.o
PDB0_IRQHandler                                   ./startup/startup_mk22f51212.o
PIT0_DriverIRQHandler                             ./startup/startup_mk22f51212.o
PIT0_IRQHandler                                   ./board/board.o
                                                  ./startup/startup_mk22f51212.o
PIT1_DriverIRQHandler                             ./startup/startup_mk22f51212.o
PIT1_IRQHandler                                   ./board/board.o
                                                  ./startup/startup_mk22f51212.o
PIT2_DriverIRQHandler                             ./startup/startup_mk22f51212.o
PIT2_IRQHandler                                   ./startup/startup_mk22f51212.o
PIT3_DriverIRQHandler                             ./startup/startup_mk22f51212.o
PIT3_IRQHandler                                   ./startup/startup_mk22f51212.o
PIT_Deinit                                        ./drivers/fsl_pit.o
PIT_Init                                          ./drivers/fsl_pit.o
                                                  ./board/board.o
PORTA_DriverIRQHandler                            ./startup/startup_mk22f51212.o
PORTA_IRQHandler                                  ./startup/startup_mk22f51212.o
PORTB_DriverIRQHandler                            ./startup/startup_mk22f51212.o
PORTB_IRQHandler                                  ./startup/startup_mk22f51212.o
PORTC_DriverIRQHandler                            ./startup/startup_mk22f51212.o
PORTC_IRQHandler                                  ./startup/startup_mk22f51212.o
PORTD_DriverIRQHandler                            ./startup/startup_mk22f51212.o
PORTD_IRQHandler                                  ./startup/startup_mk22f51212.o
PORTE_DriverIRQHandler                            ./startup/startup_mk22f51212.o
PORTE_IRQHandler                                  ./startup/startup_mk22f51212.o
PSFExtensionInfo                                  ./source/Tracealyzer/trcStreamingRecorder.o
PageInfo                                          ./source/Tracealyzer/trcStreamingRecorder.o
PendSV_Handler                                    ./freertos/freertos_kernel/portable/GCC/ARM_CM4F/port.o
                                                  ./startup/startup_mk22f51212.o
RNGA_Deinit                                       ./drivers/fsl_rnga.o
RNGA_GetMode                                      ./drivers/fsl_rnga.o
RNGA_GetRandomData                                ./drivers/fsl_rnga.o
RNGA_Init                                         ./drivers/fsl_rnga.o
RNGA_Seed                                         ./drivers/fsl_rnga.o
RNGA_SetMode                                      ./drivers/fsl_rnga.o
RNG_DriverIRQHandler                              ./startup/startup_mk22f51212.o
RNG_IRQHandler                                    ./startup/startup_mk22f51212.o
RTC_ClearStatusFlags                              ./drivers/fsl_rtc.o
RTC_DisableInterrupts                             ./drivers/fsl_rtc.o
RTC_DriverIRQHandler                              ./startup/startup_mk22f51212.o
RTC_EnableInterrupts                              ./drivers/fsl_rtc.o
RTC_GetAlarm                                      ./drivers/fsl_rtc.o
RTC_GetDatetime                                   ./drivers/fsl_rtc.o
RTC_GetDefaultConfig                              ./drivers/fsl_rtc.o
RTC_GetEnabledInterrupts                          ./drivers/fsl_rtc.o
RTC_GetStatusFlags                                ./drivers/fsl_rtc.o
RTC_IRQHandler                                    ./startup/startup_mk22f51212.o
RTC_Init                                          ./drivers/fsl_rtc.o
RTC_Seconds_DriverIRQHandler                      ./startup/startup_mk22f51212.o
RTC_Seconds_IRQHandler                            ./startup/startup_mk22f51212.o
RTC_SetAlarm                                      ./drivers/fsl_rtc.o
RTC_SetDatetime                                   ./drivers/fsl_rtc.o
Read_Collision_DriverIRQHandler                   ./startup/startup_mk22f51212.o
Read_Collision_IRQHandler                         ./startup/startup_mk22f51212.o
RecorderEnabled                                   ./source/Tracealyzer/trcStreamingRecorder.o
                                                  ./source/Tracealyzer/trcKernelPort.o
ReleaseAllSysclkTimerHandles                      ./source/Misc.o
ReleaseSysclkTimerHandle                          ./source/Misc.o
Reserved53_DriverIRQHandler                       ./startup/startup_mk22f51212.o
Reserved53_IRQHandler                             ./startup/startup_mk22f51212.o
Reserved54_DriverIRQHandler                       ./startup/startup_mk22f51212.o
Reserved54_IRQHandler                             ./startup/startup_mk22f51212.o
Reserved61_DriverIRQHandler                       ./startup/startup_mk22f51212.o
Reserved61_IRQHandler                             ./startup/startup_mk22f51212.o
Reserved70_DriverIRQHandler                       ./startup/startup_mk22f51212.o
Reserved70_IRQHandler                             ./startup/startup_mk22f51212.o
Reserved71_DriverIRQHandler                       ./startup/startup_mk22f51212.o
Reserved71_IRQHandler                             ./startup/startup_mk22f51212.o
Reserved81_DriverIRQHandler                       ./startup/startup_mk22f51212.o
Reserved81_IRQHandler                             ./startup/startup_mk22f51212.o
Reserved82_DriverIRQHandler                       ./startup/startup_mk22f51212.o
Reserved82_IRQHandler                             ./startup/startup_mk22f51212.o
Reserved83_DriverIRQHandler                       ./startup/startup_mk22f51212.o
Reserved83_IRQHandler                             ./startup/startup_mk22f51212.o
Reserved84_DriverIRQHandler                       ./startup/startup_mk22f51212.o
Reserved84_IRQHandler                             ./startup/startup_mk22f51212.o
Reserved85_DriverIRQHandler                       ./startup/startup_mk22f51212.o
Reserved85_IRQHandler                             ./startup/startup_mk22f51212.o
Reserved86_DriverIRQHandler                       ./startup/startup_mk22f51212.o
Reserved86_IRQHandler                             ./startup/startup_mk22f51212.o
ResetISR                                          ./startup/startup_mk22f51212.o
SDK_DelayAtLeastUs                                ./drivers/fsl_common.o
                                                  ./source/usb/virtual_com.o
SDK_Free                                          ./drivers/fsl_common.o
SDK_Malloc                                        ./drivers/fsl_common.o
SEGGER_RTT_AllocDownBuffer                        ./source/Tracealyzer/streamports/Jlink_RTT/SEGGER_RTT.o
SEGGER_RTT_AllocUpBuffer                          ./source/Tracealyzer/streamports/Jlink_RTT/SEGGER_RTT.o
SEGGER_RTT_ConfigDownBuffer                       ./source/Tracealyzer/streamports/Jlink_RTT/SEGGER_RTT.o
                                                  ./source/Tracealyzer/trcKernelPort.o
SEGGER_RTT_ConfigUpBuffer                         ./source/Tracealyzer/streamports/Jlink_RTT/SEGGER_RTT.o
                                                  ./source/Tracealyzer/trcKernelPort.o
SEGGER_RTT_GetKey                                 ./source/Tracealyzer/streamports/Jlink_RTT/SEGGER_RTT.o
SEGGER_RTT_HasData                                ./source/Tracealyzer/streamports/Jlink_RTT/SEGGER_RTT.o
SEGGER_RTT_HasKey                                 ./source/Tracealyzer/streamports/Jlink_RTT/SEGGER_RTT.o
SEGGER_RTT_Init                                   ./source/Tracealyzer/streamports/Jlink_RTT/SEGGER_RTT.o
SEGGER_RTT_Read                                   ./source/Tracealyzer/streamports/Jlink_RTT/SEGGER_RTT.o
                                                  ./source/Tracealyzer/streamports/Jlink_RTT/trcStreamingPort.o
SEGGER_RTT_ReadNoLock                             ./source/Tracealyzer/streamports/Jlink_RTT/SEGGER_RTT.o
SEGGER_RTT_SetFlagsDownBuffer                     ./source/Tracealyzer/streamports/Jlink_RTT/SEGGER_RTT.o
SEGGER_RTT_SetFlagsUpBuffer                       ./source/Tracealyzer/streamports/Jlink_RTT/SEGGER_RTT.o
SEGGER_RTT_SetNameDownBuffer                      ./source/Tracealyzer/streamports/Jlink_RTT/SEGGER_RTT.o
SEGGER_RTT_SetNameUpBuffer                        ./source/Tracealyzer/streamports/Jlink_RTT/SEGGER_RTT.o
SEGGER_RTT_SetTerminal                            ./source/Tracealyzer/streamports/Jlink_RTT/SEGGER_RTT.o
SEGGER_RTT_TerminalOut                            ./source/Tracealyzer/streamports/Jlink_RTT/SEGGER_RTT.o
SEGGER_RTT_WaitKey                                ./source/Tracealyzer/streamports/Jlink_RTT/SEGGER_RTT.o
SEGGER_RTT_Write                                  ./source/Tracealyzer/streamports/Jlink_RTT/SEGGER_RTT.o
                                                  ./source/Tracealyzer/streamports/Jlink_RTT/trcStreamingPort.o
SEGGER_RTT_WriteNoLock                            ./source/Tracealyzer/streamports/Jlink_RTT/SEGGER_RTT.o
SEGGER_RTT_WriteSkipNoLock                        ./source/Tracealyzer/streamports/Jlink_RTT/SEGGER_RTT.o
SEGGER_RTT_WriteString                            ./source/Tracealyzer/streamports/Jlink_RTT/SEGGER_RTT.o
SEGGER_RTT_WriteWithOverwriteNoLock               ./source/Tracealyzer/streamports/Jlink_RTT/SEGGER_RTT.o
SIM_GetUniqueId                                   ./drivers/fsl_sim.o
SIM_SetUsbVoltRegulatorEnableMode                 ./drivers/fsl_sim.o
SMC_PostExitStopModes                             ./drivers/fsl_smc.o
SMC_PostExitWaitModes                             ./drivers/fsl_smc.o
SMC_PreEnterStopModes                             ./drivers/fsl_smc.o
SMC_PreEnterWaitModes                             ./drivers/fsl_smc.o
SMC_SetPowerModeHsrun                             ./drivers/fsl_smc.o
SMC_SetPowerModeLls                               ./drivers/fsl_smc.o
SMC_SetPowerModeRun                               ./drivers/fsl_smc.o
SMC_SetPowerModeStop                              ./drivers/fsl_smc.o
SMC_SetPowerModeVlls                              ./drivers/fsl_smc.o
SMC_SetPowerModeVlpr                              ./drivers/fsl_smc.o
SMC_SetPowerModeVlps                              ./drivers/fsl_smc.o
SMC_SetPowerModeVlpw                              ./drivers/fsl_smc.o
SMC_SetPowerModeWait                              ./drivers/fsl_smc.o
SPI0_DriverIRQHandler                             ./drivers/fsl_dspi.o
                                                  ./startup/startup_mk22f51212.o
SPI0_IRQHandler                                   ./startup/startup_mk22f51212.o
SPI1_DriverIRQHandler                             ./drivers/fsl_dspi.o
                                                  ./startup/startup_mk22f51212.o
SPI1_IRQHandler                                   ./startup/startup_mk22f51212.o
SUB_GetSystemInfo                                 ./source/CmdInfo.o
SVC_Handler                                       ./freertos/freertos_kernel/portable/GCC/ARM_CM4F/port.o
                                                  ./startup/startup_mk22f51212.o
SWI_DriverIRQHandler                              ./startup/startup_mk22f51212.o
SWI_IRQHandler                                    ./startup/startup_mk22f51212.o
SendCommandType                                   ./source/CommandHandler.o
                                                  ./source/CmdSystem.o
                                                  ./source/CmdInfo.o
SendNAK                                           ./source/CommandHandler.o
SendPacketCMD                                     ./source/CommandHandler.o
                                                  ./source/CmdSystem.o
                                                  ./source/CmdInfo.o
SetSysclkTimer                                    ./source/Misc.o
SetVal_16                                         ./source/Misc.o
                                                  ./source/CommandHandler.o
                                                  ./source/CmdSystem.o
SetVal_16B                                        ./source/Misc.o
SetVal_32                                         ./source/Misc.o
                                                  ./source/CmdSystem.o
SetVal_32B                                        ./source/Misc.o
SetVal_Float                                      ./source/Misc.o
                                                  ./source/CmdSystem.o
SetVal_FloatB                                     ./source/Misc.o
Sleep                                             ./source/Misc.o
SwapEndianessVector                               ./source/Misc.o
SysTick_Handler                                   ./freertos/freertos_kernel/portable/GCC/ARM_CM4F/port.o
                                                  ./startup/startup_mk22f51212.o
SystemCommandHandler                              ./source/CmdSystem.o
                                                  ./source/CommandHandler.o
SystemCoreClock                                   ./device/system_MK22F51212.o
                                                  ./board/clock_config.o
                                                  ./freertos/freertos_kernel/portable/GCC/ARM_CM4F/port.o
                                                  ./source/Tracealyzer/trcStreamingRecorder.o
SystemCoreClockUpdate                             ./device/system_MK22F51212.o
                                                  ./source/usb/virtual_com.o
SystemInit                                        ./device/system_MK22F51212.o
                                                  ./startup/startup_mk22f51212.o
SystemInitHook                                    ./device/system_MK22F51212.o
TaskComm                                          ./source/BRDUINO_Nano.o
                                                  ./source/CommandHandler.o
TaskCtl                                           ./source/BRDUINO_Nano.o
TotalBytesRemaining                               ./source/Tracealyzer/trcStreamingRecorder.o
TotalBytesRemaining_LowWaterMark                  ./source/Tracealyzer/trcStreamingRecorder.o
UART0_DriverIRQHandler                            ./drivers/fsl_uart.o
UART0_ERR_DriverIRQHandler                        ./startup/startup_mk22f51212.o
UART0_ERR_IRQHandler                              ./startup/startup_mk22f51212.o
UART0_RX_TX_DriverIRQHandler                      ./source/uart.o
                                                  ./startup/startup_mk22f51212.o
UART0_RX_TX_IRQHandler                            ./startup/startup_mk22f51212.o
UART1_DriverIRQHandler                            ./drivers/fsl_uart.o
UART1_ERR_DriverIRQHandler                        ./startup/startup_mk22f51212.o
UART1_ERR_IRQHandler                              ./startup/startup_mk22f51212.o
UART1_RX_TX_DriverIRQHandler                      ./source/uart.o
                                                  ./startup/startup_mk22f51212.o
UART1_RX_TX_IRQHandler                            ./startup/startup_mk22f51212.o
UART2_DriverIRQHandler                            ./drivers/fsl_uart.o
UART2_ERR_DriverIRQHandler                        ./startup/startup_mk22f51212.o
UART2_ERR_IRQHandler                              ./startup/startup_mk22f51212.o
UART2_RX_TX_DriverIRQHandler                      ./drivers/fsl_uart.o
                                                  ./startup/startup_mk22f51212.o
UART2_RX_TX_IRQHandler                            ./startup/startup_mk22f51212.o
UART_ChangeBaudrate                               ./source/uart.o
UART_ChangeParity                                 ./source/uart.o
UART_ClearStatusFlags                             ./drivers/fsl_uart.o
UART_CmdIF_HandleUSB                              ./source/CommandHandler.o
                                                  ./source/usb/virtual_com.o
UART_CmdIF_IRQHandler                             ./source/CommandHandler.o
                                                  ./source/uart.o
UART_Deinit                                       ./drivers/fsl_uart.o
UART_DisableIRQ                                   ./source/uart.o
UART_DisableInterrupts                            ./drivers/fsl_uart.o
UART_EnableIRQ                                    ./source/uart.o
UART_EnableInterrupts                             ./drivers/fsl_uart.o
                                                  ./source/uart.o
UART_EnableRxFIFO                                 ./drivers/fsl_uart.o
UART_EnableTxFIFO                                 ./drivers/fsl_uart.o
UART_GetBaudrate                                  ./source/uart.o
UART_GetDefaultConfig                             ./drivers/fsl_uart.o
UART_GetEnabledInterrupts                         ./drivers/fsl_uart.o
UART_GetInstance                                  ./drivers/fsl_uart.o
UART_GetParity                                    ./source/uart.o
UART_GetStatusFlags                               ./drivers/fsl_uart.o
UART_Getchar_present                              ./source/uart.o
UART_Init                                         ./drivers/fsl_uart.o
                                                  ./source/uart.o
UART_InitIRQ                                      ./source/uart.o
                                                  ./board/board.o
UART_InitUart                                     ./source/uart.o
                                                  ./board/board.o
UART_Putchar                                      ./source/uart.o
UART_ReadBlocking                                 ./drivers/fsl_uart.o
UART_RestoreDefaultIFdescriptors                  ./source/uart.o
UART_SendPacket                                   ./source/uart.o
UART_SendPacketCMD                                ./source/uart.o
                                                  ./source/CommandHandler.o
UART_SetBaudRate                                  ./drivers/fsl_uart.o
                                                  ./source/uart.o
UART_TransferAbortReceive                         ./drivers/fsl_uart.o
UART_TransferAbortSend                            ./drivers/fsl_uart.o
UART_TransferCreateHandle                         ./drivers/fsl_uart.o
UART_TransferGetReceiveCount                      ./drivers/fsl_uart.o
UART_TransferGetRxRingBufferLength                ./drivers/fsl_uart.o
UART_TransferGetSendCount                         ./drivers/fsl_uart.o
UART_TransferHandleErrorIRQ                       ./drivers/fsl_uart.o
UART_TransferHandleIRQ                            ./drivers/fsl_uart.o
UART_TransferReceiveNonBlocking                   ./drivers/fsl_uart.o
UART_TransferSendNonBlocking                      ./drivers/fsl_uart.o
UART_TransferStartRingBuffer                      ./drivers/fsl_uart.o
UART_TransferStopRingBuffer                       ./drivers/fsl_uart.o
UART_WriteBlocking                                ./drivers/fsl_uart.o
UART_descriptor                                   ./source/uart.o
UART_descriptor_default                           ./source/uart.o
USB0_DriverIRQHandler                             ./startup/startup_mk22f51212.o
USB0_IRQHandler                                   ./source/usb/virtual_com.o
                                                  ./startup/startup_mk22f51212.o
USB_DeviceApplicationInit                         ./source/usb/virtual_com.o
USB_DeviceCallback                                ./source/usb/virtual_com.o
USB_DeviceCancel                                  ./usb/device/source/usb_device_dci.o
USB_DeviceCdcAcmDeinit                            ./usb/device/class/cdc/usb_device_cdc_acm.o
                                                  ./usb/device/class/usb_device_class.o
USB_DeviceCdcAcmEvent                             ./usb/device/class/cdc/usb_device_cdc_acm.o
                                                  ./usb/device/class/usb_device_class.o
USB_DeviceCdcAcmInit                              ./usb/device/class/cdc/usb_device_cdc_acm.o
                                                  ./usb/device/class/usb_device_class.o
USB_DeviceCdcAcmRecv                              ./usb/device/class/cdc/usb_device_cdc_acm.o
                                                  ./source/usb/virtual_com.o
USB_DeviceCdcAcmSend                              ./usb/device/class/cdc/usb_device_cdc_acm.o
                                                  ./source/usb/virtual_com.o
USB_DeviceCdcVcomCallback                         ./source/usb/virtual_com.o
USB_DeviceClassCallback                           ./usb/device/class/usb_device_class.o
                                                  ./usb/device/source/usb_device_ch9.o
USB_DeviceClassDeinit                             ./usb/device/class/usb_device_class.o
USB_DeviceClassEvent                              ./usb/device/class/usb_device_class.o
                                                  ./usb/device/source/usb_device_ch9.o
USB_DeviceClassGetDeviceHandle                    ./usb/device/class/usb_device_class.o
                                                  ./usb/device/class/cdc/usb_device_cdc_acm.o
USB_DeviceClassGetSpeed                           ./usb/device/class/usb_device_class.o
USB_DeviceClassInit                               ./usb/device/class/usb_device_class.o
                                                  ./source/usb/virtual_com.o
USB_DeviceClockInit                               ./source/usb/virtual_com.o
USB_DeviceControlPipeInit                         ./usb/device/source/usb_device_ch9.o
                                                  ./usb/device/class/usb_device_class.o
USB_DeviceDeinit                                  ./usb/device/source/usb_device_dci.o
                                                  ./usb/device/class/usb_device_class.o
USB_DeviceDeinitEndpoint                          ./usb/device/source/usb_device_dci.o
                                                  ./usb/device/class/cdc/usb_device_cdc_acm.o
                                                  ./usb/device/source/usb_device_ch9.o
USB_DeviceGetConfigurationDescriptor              ./source/usb/usb_device_descriptor.o
                                                  ./source/usb/virtual_com.o
USB_DeviceGetDeviceDescriptor                     ./source/usb/usb_device_descriptor.o
                                                  ./source/usb/virtual_com.o
USB_DeviceGetStatus                               ./usb/device/source/usb_device_dci.o
                                                  ./usb/device/class/usb_device_class.o
                                                  ./usb/device/source/usb_device_ch9.o
USB_DeviceGetStringDescriptor                     ./source/usb/usb_device_descriptor.o
                                                  ./source/usb/virtual_com.o
USB_DeviceGetVersion                              ./usb/device/source/usb_device_dci.o
USB_DeviceInit                                    ./usb/device/source/usb_device_dci.o
                                                  ./usb/device/class/usb_device_class.o
USB_DeviceInitEndpoint                            ./usb/device/source/usb_device_dci.o
                                                  ./usb/device/class/cdc/usb_device_cdc_acm.o
                                                  ./usb/device/source/usb_device_ch9.o
USB_DeviceIsrEnable                               ./source/usb/virtual_com.o
USB_DeviceKhciCancel                              ./usb/device/source/khci/usb_device_khci.o
                                                  ./usb/device/source/usb_device_dci.o
USB_DeviceKhciControl                             ./usb/device/source/khci/usb_device_khci.o
                                                  ./usb/device/source/usb_device_dci.o
USB_DeviceKhciDeinit                              ./usb/device/source/khci/usb_device_khci.o
                                                  ./usb/device/source/usb_device_dci.o
USB_DeviceKhciInit                                ./usb/device/source/khci/usb_device_khci.o
                                                  ./usb/device/source/usb_device_dci.o
USB_DeviceKhciIsrFunction                         ./usb/device/source/khci/usb_device_khci.o
                                                  ./source/usb/virtual_com.o
USB_DeviceKhciRecv                                ./usb/device/source/khci/usb_device_khci.o
                                                  ./usb/device/source/usb_device_dci.o
USB_DeviceKhciSend                                ./usb/device/source/khci/usb_device_khci.o
                                                  ./usb/device/source/usb_device_dci.o
USB_DeviceNotificationTrigger                     ./usb/device/source/usb_device_dci.o
                                                  ./usb/device/source/khci/usb_device_khci.o
USB_DeviceRecvRequest                             ./usb/device/source/usb_device_dci.o
                                                  ./usb/device/class/cdc/usb_device_cdc_acm.o
                                                  ./usb/device/source/usb_device_ch9.o
USB_DeviceRun                                     ./usb/device/source/usb_device_dci.o
                                                  ./source/usb/virtual_com.o
USB_DeviceSendRequest                             ./usb/device/source/usb_device_dci.o
                                                  ./usb/device/class/cdc/usb_device_cdc_acm.o
                                                  ./usb/device/source/usb_device_ch9.o
USB_DeviceSetSpeed                                ./source/usb/usb_device_descriptor.o
USB_DeviceSetStatus                               ./usb/device/source/usb_device_dci.o
                                                  ./usb/device/source/usb_device_ch9.o
USB_DeviceStallEndpoint                           ./usb/device/source/usb_device_dci.o
                                                  ./usb/device/class/cdc/usb_device_cdc_acm.o
                                                  ./usb/device/source/usb_device_ch9.o
USB_DeviceStop                                    ./usb/device/source/usb_device_dci.o
USB_DeviceUnstallEndpoint                         ./usb/device/source/usb_device_dci.o
                                                  ./usb/device/class/cdc/usb_device_cdc_acm.o
                                                  ./usb/device/source/usb_device_ch9.o
USB_Putchar                                       ./source/usb/virtual_com.o
USB_SendPacketCMD                                 ./source/usb/virtual_com.o
                                                  ./source/CommandHandler.o
UsageFault_Handler                                ./startup/startup_mk22f51212.o
VREF_Deinit                                       ./drivers/fsl_vref.o
VREF_GetDefaultConfig                             ./drivers/fsl_vref.o
VREF_Init                                         ./drivers/fsl_vref.o
                                                  ./board/board.o
VREF_SetTrimVal                                   ./drivers/fsl_vref.o
WDOG_ClearStatusFlags                             ./drivers/fsl_wdog.o
WDOG_Deinit                                       ./drivers/fsl_wdog.o
WDOG_EWM_DriverIRQHandler                         ./startup/startup_mk22f51212.o
WDOG_EWM_IRQHandler                               ./startup/startup_mk22f51212.o
WDOG_GetDefaultConfig                             ./drivers/fsl_wdog.o
WDOG_GetStatusFlags                               ./drivers/fsl_wdog.o
WDOG_Init                                         ./drivers/fsl_wdog.o
WDOG_Refresh                                      ./drivers/fsl_wdog.o
WDOG_SetTestModeConfig                            ./drivers/fsl_wdog.o
WriteIFdescriptorID                               ./source/uart.o
_Csys_alloc                                       c:/nxp/mcuxpressoide_11.2.1_4149/ide/plugins/com.nxp.mcuxpresso.tools.win32_11.2.0.202008311134/tools/bin/../lib/gcc/arm-none-eabi/9.2.1/../../../../arm-none-eabi/lib/thumb/v7e-m+fp/hard\libcr_c.a(alloc.o)
                                                  c:/nxp/mcuxpressoide_11.2.1_4149/ide/plugins/com.nxp.mcuxpresso.tools.win32_11.2.0.202008311134/tools/bin/../lib/gcc/arm-none-eabi/9.2.1/../../../../arm-none-eabi/lib/thumb/v7e-m+fp/hard\libcr_c.a(_deferredlazyseek.o)
_Cwritebuf                                        c:/nxp/mcuxpressoide_11.2.1_4149/ide/plugins/com.nxp.mcuxpresso.tools.win32_11.2.0.202008311134/tools/bin/../lib/gcc/arm-none-eabi/9.2.1/../../../../arm-none-eabi/lib/thumb/v7e-m+fp/hard\libcr_c.a(_writebuf.o)
                                                  c:/nxp/mcuxpressoide_11.2.1_4149/ide/plugins/com.nxp.mcuxpresso.tools.win32_11.2.0.202008311134/tools/bin/../lib/gcc/arm-none-eabi/9.2.1/../../../../arm-none-eabi/lib/thumb/v7e-m+fp/hard\libcr_c.a(_fflush.o)
                                                  c:/nxp/mcuxpressoide_11.2.1_4149/ide/plugins/com.nxp.mcuxpresso.tools.win32_11.2.0.202008311134/tools/bin/../lib/gcc/arm-none-eabi/9.2.1/../../../../arm-none-eabi/lib/thumb/v7e-m+fp/hard\libcr_c.a(_deferredlazyseek.o)
_SEGGER_RTT                                       ./source/Tracealyzer/streamports/Jlink_RTT/SEGGER_RTT.o
                                                  ./source/Tracealyzer/streamports/Jlink_RTT/trcStreamingPort.o
_TzTraceData                                      ./source/Tracealyzer/trcKernelPort.o
__CR_SEMIHOST                                     c:/nxp/mcuxpressoide_11.2.1_4149/ide/plugins/com.nxp.mcuxpresso.tools.win32_11.2.0.202008311134/tools/bin/../lib/gcc/arm-none-eabi/9.2.1/../../../../arm-none-eabi/lib/thumb/v7e-m+fp/hard\libcr_semihost_nf.a(_cr__main.o)
__Ciob                                            c:/nxp/mcuxpressoide_11.2.1_4149/ide/plugins/com.nxp.mcuxpresso.tools.win32_11.2.0.202008311134/tools/bin/../lib/gcc/arm-none-eabi/9.2.1/../../../../arm-none-eabi/lib/thumb/v7e-m+fp/hard\libcr_semihost_nf.a(__ciob.o)
                                                  c:/nxp/mcuxpressoide_11.2.1_4149/ide/plugins/com.nxp.mcuxpresso.tools.win32_11.2.0.202008311134/tools/bin/../lib/gcc/arm-none-eabi/9.2.1/../../../../arm-none-eabi/lib/thumb/v7e-m+fp/hard\libcr_c.a(fflush.o)
                                                  c:/nxp/mcuxpressoide_11.2.1_4149/ide/plugins/com.nxp.mcuxpresso.tools.win32_11.2.0.202008311134/tools/bin/../lib/gcc/arm-none-eabi/9.2.1/../../../../arm-none-eabi/lib/thumb/v7e-m+fp/hard\libcr_c.a(printf.o)
                                                  c:/nxp/mcuxpressoide_11.2.1_4149/ide/plugins/com.nxp.mcuxpresso.tools.win32_11.2.0.202008311134/tools/bin/../lib/gcc/arm-none-eabi/9.2.1/../../../../arm-none-eabi/lib/thumb/v7e-m+fp/hard\libcr_c.a(initio.o)
__Vectors                                         ./startup/startup_mk22f51212.o
__aeabi_cdcmpeq                                   c:/nxp/mcuxpressoide_11.2.1_4149/ide/plugins/com.nxp.mcuxpresso.tools.win32_11.2.0.202008311134/tools/bin/../lib/gcc/arm-none-eabi/9.2.1/thumb/v7e-m+fp/hard\libcr_eabihelpers.a(double.o)
__aeabi_cdcmple                                   c:/nxp/mcuxpressoide_11.2.1_4149/ide/plugins/com.nxp.mcuxpresso.tools.win32_11.2.0.202008311134/tools/bin/../lib/gcc/arm-none-eabi/9.2.1/thumb/v7e-m+fp/hard\libcr_eabihelpers.a(double.o)
__aeabi_cdrcmple                                  c:/nxp/mcuxpressoide_11.2.1_4149/ide/plugins/com.nxp.mcuxpresso.tools.win32_11.2.0.202008311134/tools/bin/../lib/gcc/arm-none-eabi/9.2.1/thumb/v7e-m+fp/hard\libcr_eabihelpers.a(double.o)
__aeabi_cfcmpeq                                   c:/nxp/mcuxpressoide_11.2.1_4149/ide/plugins/com.nxp.mcuxpresso.tools.win32_11.2.0.202008311134/tools/bin/../lib/gcc/arm-none-eabi/9.2.1/thumb/v7e-m+fp/hard\libcr_eabihelpers.a(float.o)
__aeabi_cfcmple                                   c:/nxp/mcuxpressoide_11.2.1_4149/ide/plugins/com.nxp.mcuxpresso.tools.win32_11.2.0.202008311134/tools/bin/../lib/gcc/arm-none-eabi/9.2.1/thumb/v7e-m+fp/hard\libcr_eabihelpers.a(float.o)
__aeabi_cfrcmple                                  c:/nxp/mcuxpressoide_11.2.1_4149/ide/plugins/com.nxp.mcuxpresso.tools.win32_11.2.0.202008311134/tools/bin/../lib/gcc/arm-none-eabi/9.2.1/thumb/v7e-m+fp/hard\libcr_eabihelpers.a(float.o)
__aeabi_d2f                                       c:/nxp/mcuxpressoide_11.2.1_4149/ide/plugins/com.nxp.mcuxpresso.tools.win32_11.2.0.202008311134/tools/bin/../lib/gcc/arm-none-eabi/9.2.1/thumb/v7e-m+fp/hard\libcr_eabihelpers.a(double.o)
__aeabi_d2iz                                      c:/nxp/mcuxpressoide_11.2.1_4149/ide/plugins/com.nxp.mcuxpresso.tools.win32_11.2.0.202008311134/tools/bin/../lib/gcc/arm-none-eabi/9.2.1/thumb/v7e-m+fp/hard\libcr_eabihelpers.a(double.o)
                                                  ./board/board.o
__aeabi_d2lz                                      c:/nxp/mcuxpressoide_11.2.1_4149/ide/plugins/com.nxp.mcuxpresso.tools.win32_11.2.0.202008311134/tools/bin/../lib/gcc/arm-none-eabi/9.2.1/thumb/v7e-m+fp/hard\libcr_eabihelpers.a(double.o)
__aeabi_d2uiz                                     c:/nxp/mcuxpressoide_11.2.1_4149/ide/plugins/com.nxp.mcuxpresso.tools.win32_11.2.0.202008311134/tools/bin/../lib/gcc/arm-none-eabi/9.2.1/thumb/v7e-m+fp/hard\libcr_eabihelpers.a(double.o)
__aeabi_d2ulz                                     c:/nxp/mcuxpressoide_11.2.1_4149/ide/plugins/com.nxp.mcuxpresso.tools.win32_11.2.0.202008311134/tools/bin/../lib/gcc/arm-none-eabi/9.2.1/thumb/v7e-m+fp/hard\libcr_eabihelpers.a(double.o)
__aeabi_dadd                                      c:/nxp/mcuxpressoide_11.2.1_4149/ide/plugins/com.nxp.mcuxpresso.tools.win32_11.2.0.202008311134/tools/bin/../lib/gcc/arm-none-eabi/9.2.1/thumb/v7e-m+fp/hard\libcr_eabihelpers.a(double.o)
                                                  ./board/board.o
__aeabi_dcmpeq                                    c:/nxp/mcuxpressoide_11.2.1_4149/ide/plugins/com.nxp.mcuxpresso.tools.win32_11.2.0.202008311134/tools/bin/../lib/gcc/arm-none-eabi/9.2.1/thumb/v7e-m+fp/hard\libcr_eabihelpers.a(double.o)
__aeabi_dcmpge                                    c:/nxp/mcuxpressoide_11.2.1_4149/ide/plugins/com.nxp.mcuxpresso.tools.win32_11.2.0.202008311134/tools/bin/../lib/gcc/arm-none-eabi/9.2.1/thumb/v7e-m+fp/hard\libcr_eabihelpers.a(double.o)
__aeabi_dcmpgt                                    c:/nxp/mcuxpressoide_11.2.1_4149/ide/plugins/com.nxp.mcuxpresso.tools.win32_11.2.0.202008311134/tools/bin/../lib/gcc/arm-none-eabi/9.2.1/thumb/v7e-m+fp/hard\libcr_eabihelpers.a(double.o)
__aeabi_dcmple                                    c:/nxp/mcuxpressoide_11.2.1_4149/ide/plugins/com.nxp.mcuxpresso.tools.win32_11.2.0.202008311134/tools/bin/../lib/gcc/arm-none-eabi/9.2.1/thumb/v7e-m+fp/hard\libcr_eabihelpers.a(double.o)
__aeabi_dcmplt                                    c:/nxp/mcuxpressoide_11.2.1_4149/ide/plugins/com.nxp.mcuxpresso.tools.win32_11.2.0.202008311134/tools/bin/../lib/gcc/arm-none-eabi/9.2.1/thumb/v7e-m+fp/hard\libcr_eabihelpers.a(double.o)
__aeabi_dcmpun                                    c:/nxp/mcuxpressoide_11.2.1_4149/ide/plugins/com.nxp.mcuxpresso.tools.win32_11.2.0.202008311134/tools/bin/../lib/gcc/arm-none-eabi/9.2.1/thumb/v7e-m+fp/hard\libcr_eabihelpers.a(double.o)
__aeabi_ddiv                                      c:/nxp/mcuxpressoide_11.2.1_4149/ide/plugins/com.nxp.mcuxpresso.tools.win32_11.2.0.202008311134/tools/bin/../lib/gcc/arm-none-eabi/9.2.1/thumb/v7e-m+fp/hard\libcr_eabihelpers.a(double.o)
__aeabi_dmul                                      c:/nxp/mcuxpressoide_11.2.1_4149/ide/plugins/com.nxp.mcuxpresso.tools.win32_11.2.0.202008311134/tools/bin/../lib/gcc/arm-none-eabi/9.2.1/thumb/v7e-m+fp/hard\libcr_eabihelpers.a(double.o)
__aeabi_dneg                                      c:/nxp/mcuxpressoide_11.2.1_4149/ide/plugins/com.nxp.mcuxpresso.tools.win32_11.2.0.202008311134/tools/bin/../lib/gcc/arm-none-eabi/9.2.1/thumb/v7e-m+fp/hard\libcr_eabihelpers.a(double.o)
__aeabi_drsub                                     c:/nxp/mcuxpressoide_11.2.1_4149/ide/plugins/com.nxp.mcuxpresso.tools.win32_11.2.0.202008311134/tools/bin/../lib/gcc/arm-none-eabi/9.2.1/thumb/v7e-m+fp/hard\libcr_eabihelpers.a(double.o)
__aeabi_dsub                                      c:/nxp/mcuxpressoide_11.2.1_4149/ide/plugins/com.nxp.mcuxpresso.tools.win32_11.2.0.202008311134/tools/bin/../lib/gcc/arm-none-eabi/9.2.1/thumb/v7e-m+fp/hard\libcr_eabihelpers.a(double.o)
__aeabi_f2d                                       c:/nxp/mcuxpressoide_11.2.1_4149/ide/plugins/com.nxp.mcuxpresso.tools.win32_11.2.0.202008311134/tools/bin/../lib/gcc/arm-none-eabi/9.2.1/thumb/v7e-m+fp/hard\libcr_eabihelpers.a(float.o)
                                                  ./board/board.o
__aeabi_f2iz                                      c:/nxp/mcuxpressoide_11.2.1_4149/ide/plugins/com.nxp.mcuxpresso.tools.win32_11.2.0.202008311134/tools/bin/../lib/gcc/arm-none-eabi/9.2.1/thumb/v7e-m+fp/hard\libcr_eabihelpers.a(float.o)
__aeabi_f2lz                                      c:/nxp/mcuxpressoide_11.2.1_4149/ide/plugins/com.nxp.mcuxpresso.tools.win32_11.2.0.202008311134/tools/bin/../lib/gcc/arm-none-eabi/9.2.1/thumb/v7e-m+fp/hard\libcr_eabihelpers.a(float.o)
__aeabi_f2uiz                                     c:/nxp/mcuxpressoide_11.2.1_4149/ide/plugins/com.nxp.mcuxpresso.tools.win32_11.2.0.202008311134/tools/bin/../lib/gcc/arm-none-eabi/9.2.1/thumb/v7e-m+fp/hard\libcr_eabihelpers.a(float.o)
__aeabi_f2ulz                                     c:/nxp/mcuxpressoide_11.2.1_4149/ide/plugins/com.nxp.mcuxpresso.tools.win32_11.2.0.202008311134/tools/bin/../lib/gcc/arm-none-eabi/9.2.1/thumb/v7e-m+fp/hard\libcr_eabihelpers.a(float.o)
__aeabi_fadd                                      c:/nxp/mcuxpressoide_11.2.1_4149/ide/plugins/com.nxp.mcuxpresso.tools.win32_11.2.0.202008311134/tools/bin/../lib/gcc/arm-none-eabi/9.2.1/thumb/v7e-m+fp/hard\libcr_eabihelpers.a(float.o)
__aeabi_fcmpeq                                    c:/nxp/mcuxpressoide_11.2.1_4149/ide/plugins/com.nxp.mcuxpresso.tools.win32_11.2.0.202008311134/tools/bin/../lib/gcc/arm-none-eabi/9.2.1/thumb/v7e-m+fp/hard\libcr_eabihelpers.a(float.o)
__aeabi_fcmpge                                    c:/nxp/mcuxpressoide_11.2.1_4149/ide/plugins/com.nxp.mcuxpresso.tools.win32_11.2.0.202008311134/tools/bin/../lib/gcc/arm-none-eabi/9.2.1/thumb/v7e-m+fp/hard\libcr_eabihelpers.a(float.o)
__aeabi_fcmpgt                                    c:/nxp/mcuxpressoide_11.2.1_4149/ide/plugins/com.nxp.mcuxpresso.tools.win32_11.2.0.202008311134/tools/bin/../lib/gcc/arm-none-eabi/9.2.1/thumb/v7e-m+fp/hard\libcr_eabihelpers.a(float.o)
__aeabi_fcmple                                    c:/nxp/mcuxpressoide_11.2.1_4149/ide/plugins/com.nxp.mcuxpresso.tools.win32_11.2.0.202008311134/tools/bin/../lib/gcc/arm-none-eabi/9.2.1/thumb/v7e-m+fp/hard\libcr_eabihelpers.a(float.o)
__aeabi_fcmplt                                    c:/nxp/mcuxpressoide_11.2.1_4149/ide/plugins/com.nxp.mcuxpresso.tools.win32_11.2.0.202008311134/tools/bin/../lib/gcc/arm-none-eabi/9.2.1/thumb/v7e-m+fp/hard\libcr_eabihelpers.a(float.o)
__aeabi_fcmpun                                    c:/nxp/mcuxpressoide_11.2.1_4149/ide/plugins/com.nxp.mcuxpresso.tools.win32_11.2.0.202008311134/tools/bin/../lib/gcc/arm-none-eabi/9.2.1/thumb/v7e-m+fp/hard\libcr_eabihelpers.a(float.o)
__aeabi_fdiv                                      c:/nxp/mcuxpressoide_11.2.1_4149/ide/plugins/com.nxp.mcuxpresso.tools.win32_11.2.0.202008311134/tools/bin/../lib/gcc/arm-none-eabi/9.2.1/thumb/v7e-m+fp/hard\libcr_eabihelpers.a(float.o)
__aeabi_fmul                                      c:/nxp/mcuxpressoide_11.2.1_4149/ide/plugins/com.nxp.mcuxpresso.tools.win32_11.2.0.202008311134/tools/bin/../lib/gcc/arm-none-eabi/9.2.1/thumb/v7e-m+fp/hard\libcr_eabihelpers.a(float.o)
__aeabi_fneg                                      c:/nxp/mcuxpressoide_11.2.1_4149/ide/plugins/com.nxp.mcuxpresso.tools.win32_11.2.0.202008311134/tools/bin/../lib/gcc/arm-none-eabi/9.2.1/thumb/v7e-m+fp/hard\libcr_eabihelpers.a(float.o)
__aeabi_frsub                                     c:/nxp/mcuxpressoide_11.2.1_4149/ide/plugins/com.nxp.mcuxpresso.tools.win32_11.2.0.202008311134/tools/bin/../lib/gcc/arm-none-eabi/9.2.1/thumb/v7e-m+fp/hard\libcr_eabihelpers.a(float.o)
__aeabi_fsub                                      c:/nxp/mcuxpressoide_11.2.1_4149/ide/plugins/com.nxp.mcuxpresso.tools.win32_11.2.0.202008311134/tools/bin/../lib/gcc/arm-none-eabi/9.2.1/thumb/v7e-m+fp/hard\libcr_eabihelpers.a(float.o)
__aeabi_i2d                                       c:/nxp/mcuxpressoide_11.2.1_4149/ide/plugins/com.nxp.mcuxpresso.tools.win32_11.2.0.202008311134/tools/bin/../lib/gcc/arm-none-eabi/9.2.1/thumb/v7e-m+fp/hard\libcr_eabihelpers.a(double.o)
__aeabi_i2f                                       c:/nxp/mcuxpressoide_11.2.1_4149/ide/plugins/com.nxp.mcuxpresso.tools.win32_11.2.0.202008311134/tools/bin/../lib/gcc/arm-none-eabi/9.2.1/thumb/v7e-m+fp/hard\libcr_eabihelpers.a(float.o)
__aeabi_idiv0                                     c:/nxp/mcuxpressoide_11.2.1_4149/ide/plugins/com.nxp.mcuxpresso.tools.win32_11.2.0.202008311134/tools/bin/../lib/gcc/arm-none-eabi/9.2.1/thumb/v7e-m+fp/hard\libcr_eabihelpers.a(division_idiv0.o)
                                                  c:/nxp/mcuxpressoide_11.2.1_4149/ide/plugins/com.nxp.mcuxpresso.tools.win32_11.2.0.202008311134/tools/bin/../lib/gcc/arm-none-eabi/9.2.1/thumb/v7e-m+fp/hard\libcr_eabihelpers.a(division_64.o)
__aeabi_l2d                                       c:/nxp/mcuxpressoide_11.2.1_4149/ide/plugins/com.nxp.mcuxpresso.tools.win32_11.2.0.202008311134/tools/bin/../lib/gcc/arm-none-eabi/9.2.1/thumb/v7e-m+fp/hard\libcr_eabihelpers.a(double.o)
__aeabi_l2f                                       c:/nxp/mcuxpressoide_11.2.1_4149/ide/plugins/com.nxp.mcuxpresso.tools.win32_11.2.0.202008311134/tools/bin/../lib/gcc/arm-none-eabi/9.2.1/thumb/v7e-m+fp/hard\libcr_eabihelpers.a(float.o)
__aeabi_ldivmod                                   c:/nxp/mcuxpressoide_11.2.1_4149/ide/plugins/com.nxp.mcuxpresso.tools.win32_11.2.0.202008311134/tools/bin/../lib/gcc/arm-none-eabi/9.2.1/thumb/v7e-m+fp/hard\libcr_eabihelpers.a(division_64.o)
                                                  ./board/board.o
                                                  ./component/osa/fsl_os_abstraction_free_rtos.o
__aeabi_lowlevel_memset                           c:/nxp/mcuxpressoide_11.2.1_4149/ide/plugins/com.nxp.mcuxpresso.tools.win32_11.2.0.202008311134/tools/bin/../lib/gcc/arm-none-eabi/9.2.1/thumb/v7e-m+fp/hard\libcr_eabihelpers.a(memcpy.o)
                                                  c:/nxp/mcuxpressoide_11.2.1_4149/ide/plugins/com.nxp.mcuxpresso.tools.win32_11.2.0.202008311134/tools/bin/../lib/gcc/arm-none-eabi/9.2.1/../../../../arm-none-eabi/lib/thumb/v7e-m+fp/hard\libcr_c.a(memset.o)
__aeabi_memclr                                    c:/nxp/mcuxpressoide_11.2.1_4149/ide/plugins/com.nxp.mcuxpresso.tools.win32_11.2.0.202008311134/tools/bin/../lib/gcc/arm-none-eabi/9.2.1/thumb/v7e-m+fp/hard\libcr_eabihelpers.a(memcpy.o)
__aeabi_memclr4                                   c:/nxp/mcuxpressoide_11.2.1_4149/ide/plugins/com.nxp.mcuxpresso.tools.win32_11.2.0.202008311134/tools/bin/../lib/gcc/arm-none-eabi/9.2.1/thumb/v7e-m+fp/hard\libcr_eabihelpers.a(memcpy.o)
__aeabi_memclr8                                   c:/nxp/mcuxpressoide_11.2.1_4149/ide/plugins/com.nxp.mcuxpresso.tools.win32_11.2.0.202008311134/tools/bin/../lib/gcc/arm-none-eabi/9.2.1/thumb/v7e-m+fp/hard\libcr_eabihelpers.a(memcpy.o)
__aeabi_memcpy                                    c:/nxp/mcuxpressoide_11.2.1_4149/ide/plugins/com.nxp.mcuxpresso.tools.win32_11.2.0.202008311134/tools/bin/../lib/gcc/arm-none-eabi/9.2.1/thumb/v7e-m+fp/hard\libcr_eabihelpers.a(memcpy.o)
                                                  c:/nxp/mcuxpressoide_11.2.1_4149/ide/plugins/com.nxp.mcuxpresso.tools.win32_11.2.0.202008311134/tools/bin/../lib/gcc/arm-none-eabi/9.2.1/../../../../arm-none-eabi/lib/thumb/v7e-m+fp/hard\libcr_c.a(memcpy.o)
__aeabi_memcpy4                                   c:/nxp/mcuxpressoide_11.2.1_4149/ide/plugins/com.nxp.mcuxpresso.tools.win32_11.2.0.202008311134/tools/bin/../lib/gcc/arm-none-eabi/9.2.1/thumb/v7e-m+fp/hard\libcr_eabihelpers.a(memcpy.o)
__aeabi_memcpy8                                   c:/nxp/mcuxpressoide_11.2.1_4149/ide/plugins/com.nxp.mcuxpresso.tools.win32_11.2.0.202008311134/tools/bin/../lib/gcc/arm-none-eabi/9.2.1/thumb/v7e-m+fp/hard\libcr_eabihelpers.a(memcpy.o)
__aeabi_memmove                                   c:/nxp/mcuxpressoide_11.2.1_4149/ide/plugins/com.nxp.mcuxpresso.tools.win32_11.2.0.202008311134/tools/bin/../lib/gcc/arm-none-eabi/9.2.1/thumb/v7e-m+fp/hard\libcr_eabihelpers.a(memcpy.o)
__aeabi_memmove4                                  c:/nxp/mcuxpressoide_11.2.1_4149/ide/plugins/com.nxp.mcuxpresso.tools.win32_11.2.0.202008311134/tools/bin/../lib/gcc/arm-none-eabi/9.2.1/thumb/v7e-m+fp/hard\libcr_eabihelpers.a(memcpy.o)
__aeabi_memmove8                                  c:/nxp/mcuxpressoide_11.2.1_4149/ide/plugins/com.nxp.mcuxpresso.tools.win32_11.2.0.202008311134/tools/bin/../lib/gcc/arm-none-eabi/9.2.1/thumb/v7e-m+fp/hard\libcr_eabihelpers.a(memcpy.o)
__aeabi_memset                                    c:/nxp/mcuxpressoide_11.2.1_4149/ide/plugins/com.nxp.mcuxpresso.tools.win32_11.2.0.202008311134/tools/bin/../lib/gcc/arm-none-eabi/9.2.1/thumb/v7e-m+fp/hard\libcr_eabihelpers.a(memcpy.o)
__aeabi_memset4                                   c:/nxp/mcuxpressoide_11.2.1_4149/ide/plugins/com.nxp.mcuxpresso.tools.win32_11.2.0.202008311134/tools/bin/../lib/gcc/arm-none-eabi/9.2.1/thumb/v7e-m+fp/hard\libcr_eabihelpers.a(memcpy.o)
__aeabi_memset8                                   c:/nxp/mcuxpressoide_11.2.1_4149/ide/plugins/com.nxp.mcuxpresso.tools.win32_11.2.0.202008311134/tools/bin/../lib/gcc/arm-none-eabi/9.2.1/thumb/v7e-m+fp/hard\libcr_eabihelpers.a(memcpy.o)
__aeabi_ui2d                                      c:/nxp/mcuxpressoide_11.2.1_4149/ide/plugins/com.nxp.mcuxpresso.tools.win32_11.2.0.202008311134/tools/bin/../lib/gcc/arm-none-eabi/9.2.1/thumb/v7e-m+fp/hard\libcr_eabihelpers.a(double.o)
__aeabi_ui2f                                      c:/nxp/mcuxpressoide_11.2.1_4149/ide/plugins/com.nxp.mcuxpresso.tools.win32_11.2.0.202008311134/tools/bin/../lib/gcc/arm-none-eabi/9.2.1/thumb/v7e-m+fp/hard\libcr_eabihelpers.a(float.o)
__aeabi_ul2d                                      c:/nxp/mcuxpressoide_11.2.1_4149/ide/plugins/com.nxp.mcuxpresso.tools.win32_11.2.0.202008311134/tools/bin/../lib/gcc/arm-none-eabi/9.2.1/thumb/v7e-m+fp/hard\libcr_eabihelpers.a(double.o)
__aeabi_ul2f                                      c:/nxp/mcuxpressoide_11.2.1_4149/ide/plugins/com.nxp.mcuxpresso.tools.win32_11.2.0.202008311134/tools/bin/../lib/gcc/arm-none-eabi/9.2.1/thumb/v7e-m+fp/hard\libcr_eabihelpers.a(float.o)
__aeabi_uldivmod                                  c:/nxp/mcuxpressoide_11.2.1_4149/ide/plugins/com.nxp.mcuxpresso.tools.win32_11.2.0.202008311134/tools/bin/../lib/gcc/arm-none-eabi/9.2.1/thumb/v7e-m+fp/hard\libcr_eabihelpers.a(division_64.o)
                                                  ./board/board.o
                                                  ./component/osa/fsl_os_abstraction_free_rtos.o
                                                  ./drivers/fsl_common.o
__bhs_ldivmod1                                    c:/nxp/mcuxpressoide_11.2.1_4149/ide/plugins/com.nxp.mcuxpresso.tools.win32_11.2.0.202008311134/tools/bin/../lib/gcc/arm-none-eabi/9.2.1/thumb/v7e-m+fp/hard\libcr_eabihelpers.a(division_64.o)
__bhs_ui2d                                        c:/nxp/mcuxpressoide_11.2.1_4149/ide/plugins/com.nxp.mcuxpresso.tools.win32_11.2.0.202008311134/tools/bin/../lib/gcc/arm-none-eabi/9.2.1/thumb/v7e-m+fp/hard\libcr_eabihelpers.a(double.o)
__bhs_ui2f                                        c:/nxp/mcuxpressoide_11.2.1_4149/ide/plugins/com.nxp.mcuxpresso.tools.win32_11.2.0.202008311134/tools/bin/../lib/gcc/arm-none-eabi/9.2.1/thumb/v7e-m+fp/hard\libcr_eabihelpers.a(float.o)
__bhs_ul2d                                        c:/nxp/mcuxpressoide_11.2.1_4149/ide/plugins/com.nxp.mcuxpresso.tools.win32_11.2.0.202008311134/tools/bin/../lib/gcc/arm-none-eabi/9.2.1/thumb/v7e-m+fp/hard\libcr_eabihelpers.a(double.o)
__bhs_ul2f                                        c:/nxp/mcuxpressoide_11.2.1_4149/ide/plugins/com.nxp.mcuxpresso.tools.win32_11.2.0.202008311134/tools/bin/../lib/gcc/arm-none-eabi/9.2.1/thumb/v7e-m+fp/hard\libcr_eabihelpers.a(float.o)
__bss_section_table_end                           ./startup/startup_mk22f51212.o
__check_heap_overflow                             c:/nxp/mcuxpressoide_11.2.1_4149/ide/plugins/com.nxp.mcuxpresso.tools.win32_11.2.0.202008311134/tools/bin/../lib/gcc/arm-none-eabi/9.2.1/../../../../arm-none-eabi/lib/thumb/v7e-m+fp/hard\libcr_c.a(_cr_check_heap.o)
                                                  c:/nxp/mcuxpressoide_11.2.1_4149/ide/plugins/com.nxp.mcuxpresso.tools.win32_11.2.0.202008311134/tools/bin/../lib/gcc/arm-none-eabi/9.2.1/../../../../arm-none-eabi/lib/thumb/v7e-m+fp/hard\libcr_c.a(_cr_sbrk.o)
__data_section_table                              ./startup/startup_mk22f51212.o
__data_section_table_end                          ./startup/startup_mk22f51212.o
__end_of_heap                                     c:/nxp/mcuxpressoide_11.2.1_4149/ide/plugins/com.nxp.mcuxpresso.tools.win32_11.2.0.202008311134/tools/bin/../lib/gcc/arm-none-eabi/9.2.1/../../../../arm-none-eabi/lib/thumb/v7e-m+fp/hard\libcr_c.a(__init_alloc.o)
                                                  c:/nxp/mcuxpressoide_11.2.1_4149/ide/plugins/com.nxp.mcuxpresso.tools.win32_11.2.0.202008311134/tools/bin/../lib/gcc/arm-none-eabi/9.2.1/../../../../arm-none-eabi/lib/thumb/v7e-m+fp/hard\libcr_c.a(_cr_sbrk.o)
__exit                                            c:/nxp/mcuxpressoide_11.2.1_4149/ide/plugins/com.nxp.mcuxpresso.tools.win32_11.2.0.202008311134/tools/bin/../lib/gcc/arm-none-eabi/9.2.1/../../../../arm-none-eabi/lib/thumb/v7e-m+fp/hard\libcr_semihost_nf.a(__sys_appexit.o)
__flsbuf                                          c:/nxp/mcuxpressoide_11.2.1_4149/ide/plugins/com.nxp.mcuxpresso.tools.win32_11.2.0.202008311134/tools/bin/../lib/gcc/arm-none-eabi/9.2.1/../../../../arm-none-eabi/lib/thumb/v7e-m+fp/hard\libcr_c.a(_deferredlazyseek.o)
                                                  c:/nxp/mcuxpressoide_11.2.1_4149/ide/plugins/com.nxp.mcuxpresso.tools.win32_11.2.0.202008311134/tools/bin/../lib/gcc/arm-none-eabi/9.2.1/../../../../arm-none-eabi/lib/thumb/v7e-m+fp/hard\libcr_c.a(printf.o)
__heaps                                           c:/nxp/mcuxpressoide_11.2.1_4149/ide/plugins/com.nxp.mcuxpresso.tools.win32_11.2.0.202008311134/tools/bin/../lib/gcc/arm-none-eabi/9.2.1/../../../../arm-none-eabi/lib/thumb/v7e-m+fp/hard\libcr_c.a(__init_alloc.o)
                                                  c:/nxp/mcuxpressoide_11.2.1_4149/ide/plugins/com.nxp.mcuxpresso.tools.win32_11.2.0.202008311134/tools/bin/../lib/gcc/arm-none-eabi/9.2.1/../../../../arm-none-eabi/lib/thumb/v7e-m+fp/hard\libcr_c.a(alloc.o)
__main                                            c:/nxp/mcuxpressoide_11.2.1_4149/ide/plugins/com.nxp.mcuxpresso.tools.win32_11.2.0.202008311134/tools/bin/../lib/gcc/arm-none-eabi/9.2.1/../../../../arm-none-eabi/lib/thumb/v7e-m+fp/hard\libcr_semihost_nf.a(_cr__main.o)
                                                  ./startup/startup_mk22f51212.o
__num_Ciob_streams                                c:/nxp/mcuxpressoide_11.2.1_4149/ide/plugins/com.nxp.mcuxpresso.tools.win32_11.2.0.202008311134/tools/bin/../lib/gcc/arm-none-eabi/9.2.1/../../../../arm-none-eabi/lib/thumb/v7e-m+fp/hard\libcr_semihost_nf.a(__ciob.o)
                                                  c:/nxp/mcuxpressoide_11.2.1_4149/ide/plugins/com.nxp.mcuxpresso.tools.win32_11.2.0.202008311134/tools/bin/../lib/gcc/arm-none-eabi/9.2.1/../../../../arm-none-eabi/lib/thumb/v7e-m+fp/hard\libcr_c.a(fflush.o)
                                                  c:/nxp/mcuxpressoide_11.2.1_4149/ide/plugins/com.nxp.mcuxpresso.tools.win32_11.2.0.202008311134/tools/bin/../lib/gcc/arm-none-eabi/9.2.1/../../../../arm-none-eabi/lib/thumb/v7e-m+fp/hard\libcr_c.a(initio.o)
__sys_appexit                                     c:/nxp/mcuxpressoide_11.2.1_4149/ide/plugins/com.nxp.mcuxpresso.tools.win32_11.2.0.202008311134/tools/bin/../lib/gcc/arm-none-eabi/9.2.1/../../../../arm-none-eabi/lib/thumb/v7e-m+fp/hard\libcr_semihost_nf.a(__sys_appexit.o)
                                                  c:/nxp/mcuxpressoide_11.2.1_4149/ide/plugins/com.nxp.mcuxpresso.tools.win32_11.2.0.202008311134/tools/bin/../lib/gcc/arm-none-eabi/9.2.1/../../../../arm-none-eabi/lib/thumb/v7e-m+fp/hard\libcr_c.a(alloc.o)
__sys_close                                       c:/nxp/mcuxpressoide_11.2.1_4149/ide/plugins/com.nxp.mcuxpresso.tools.win32_11.2.0.202008311134/tools/bin/../lib/gcc/arm-none-eabi/9.2.1/../../../../arm-none-eabi/lib/thumb/v7e-m+fp/hard\libcr_semihost_nf.a(__sys_close.o)
                                                  c:/nxp/mcuxpressoide_11.2.1_4149/ide/plugins/com.nxp.mcuxpresso.tools.win32_11.2.0.202008311134/tools/bin/../lib/gcc/arm-none-eabi/9.2.1/../../../../arm-none-eabi/lib/thumb/v7e-m+fp/hard\libcr_c.a(fclose.o)
__sys_flen                                        c:/nxp/mcuxpressoide_11.2.1_4149/ide/plugins/com.nxp.mcuxpresso.tools.win32_11.2.0.202008311134/tools/bin/../lib/gcc/arm-none-eabi/9.2.1/../../../../arm-none-eabi/lib/thumb/v7e-m+fp/hard\libcr_semihost_nf.a(__sys_flen.o)
                                                  c:/nxp/mcuxpressoide_11.2.1_4149/ide/plugins/com.nxp.mcuxpresso.tools.win32_11.2.0.202008311134/tools/bin/../lib/gcc/arm-none-eabi/9.2.1/../../../../arm-none-eabi/lib/thumb/v7e-m+fp/hard\libcr_c.a(fseek.o)
                                                  c:/nxp/mcuxpressoide_11.2.1_4149/ide/plugins/com.nxp.mcuxpresso.tools.win32_11.2.0.202008311134/tools/bin/../lib/gcc/arm-none-eabi/9.2.1/../../../../arm-none-eabi/lib/thumb/v7e-m+fp/hard\libcr_c.a(_writebuf.o)
__sys_istty                                       c:/nxp/mcuxpressoide_11.2.1_4149/ide/plugins/com.nxp.mcuxpresso.tools.win32_11.2.0.202008311134/tools/bin/../lib/gcc/arm-none-eabi/9.2.1/../../../../arm-none-eabi/lib/thumb/v7e-m+fp/hard\libcr_semihost_nf.a(__sys_istty.o)
                                                  c:/nxp/mcuxpressoide_11.2.1_4149/ide/plugins/com.nxp.mcuxpresso.tools.win32_11.2.0.202008311134/tools/bin/../lib/gcc/arm-none-eabi/9.2.1/../../../../arm-none-eabi/lib/thumb/v7e-m+fp/hard\libcr_c.a(fseek.o)
                                                  c:/nxp/mcuxpressoide_11.2.1_4149/ide/plugins/com.nxp.mcuxpresso.tools.win32_11.2.0.202008311134/tools/bin/../lib/gcc/arm-none-eabi/9.2.1/../../../../arm-none-eabi/lib/thumb/v7e-m+fp/hard\libcr_c.a(_deferredlazyseek.o)
__sys_remove                                      c:/nxp/mcuxpressoide_11.2.1_4149/ide/plugins/com.nxp.mcuxpresso.tools.win32_11.2.0.202008311134/tools/bin/../lib/gcc/arm-none-eabi/9.2.1/../../../../arm-none-eabi/lib/thumb/v7e-m+fp/hard\libcr_semihost_nf.a(__sys_remove.o)
                                                  c:/nxp/mcuxpressoide_11.2.1_4149/ide/plugins/com.nxp.mcuxpresso.tools.win32_11.2.0.202008311134/tools/bin/../lib/gcc/arm-none-eabi/9.2.1/../../../../arm-none-eabi/lib/thumb/v7e-m+fp/hard\libcr_c.a(remove.o)
__sys_rename                                      c:/nxp/mcuxpressoide_11.2.1_4149/ide/plugins/com.nxp.mcuxpresso.tools.win32_11.2.0.202008311134/tools/bin/../lib/gcc/arm-none-eabi/9.2.1/../../../../arm-none-eabi/lib/thumb/v7e-m+fp/hard\libcr_semihost_nf.a(__sys_rename.o)
                                                  c:/nxp/mcuxpressoide_11.2.1_4149/ide/plugins/com.nxp.mcuxpresso.tools.win32_11.2.0.202008311134/tools/bin/../lib/gcc/arm-none-eabi/9.2.1/../../../../arm-none-eabi/lib/thumb/v7e-m+fp/hard\libcr_c.a(remove.o)
__sys_seek                                        c:/nxp/mcuxpressoide_11.2.1_4149/ide/plugins/com.nxp.mcuxpresso.tools.win32_11.2.0.202008311134/tools/bin/../lib/gcc/arm-none-eabi/9.2.1/../../../../arm-none-eabi/lib/thumb/v7e-m+fp/hard\libcr_semihost_nf.a(__sys_seek.o)
                                                  c:/nxp/mcuxpressoide_11.2.1_4149/ide/plugins/com.nxp.mcuxpresso.tools.win32_11.2.0.202008311134/tools/bin/../lib/gcc/arm-none-eabi/9.2.1/../../../../arm-none-eabi/lib/thumb/v7e-m+fp/hard\libcr_c.a(_writebuf.o)
__sys_tmpnam                                      c:/nxp/mcuxpressoide_11.2.1_4149/ide/plugins/com.nxp.mcuxpresso.tools.win32_11.2.0.202008311134/tools/bin/../lib/gcc/arm-none-eabi/9.2.1/../../../../arm-none-eabi/lib/thumb/v7e-m+fp/hard\libcr_semihost_nf.a(__sys_tmpnam.o)
                                                  c:/nxp/mcuxpressoide_11.2.1_4149/ide/plugins/com.nxp.mcuxpresso.tools.win32_11.2.0.202008311134/tools/bin/../lib/gcc/arm-none-eabi/9.2.1/../../../../arm-none-eabi/lib/thumb/v7e-m+fp/hard\libcr_c.a(fclose.o)
__sys_write                                       c:/nxp/mcuxpressoide_11.2.1_4149/ide/plugins/com.nxp.mcuxpresso.tools.win32_11.2.0.202008311134/tools/bin/../lib/gcc/arm-none-eabi/9.2.1/../../../../arm-none-eabi/lib/thumb/v7e-m+fp/hard\libcr_semihost_nf.a(__sys_write.o)
                                                  c:/nxp/mcuxpressoide_11.2.1_4149/ide/plugins/com.nxp.mcuxpresso.tools.win32_11.2.0.202008311134/tools/bin/../lib/gcc/arm-none-eabi/9.2.1/../../../../arm-none-eabi/lib/thumb/v7e-m+fp/hard\libcr_c.a(_writebuf.o)
                                                  c:/nxp/mcuxpressoide_11.2.1_4149/ide/plugins/com.nxp.mcuxpresso.tools.win32_11.2.0.202008311134/tools/bin/../lib/gcc/arm-none-eabi/9.2.1/../../../../arm-none-eabi/lib/thumb/v7e-m+fp/hard\libcr_c.a(printf.o)
                                                  c:/nxp/mcuxpressoide_11.2.1_4149/ide/plugins/com.nxp.mcuxpresso.tools.win32_11.2.0.202008311134/tools/bin/../lib/gcc/arm-none-eabi/9.2.1/../../../../arm-none-eabi/lib/thumb/v7e-m+fp/hard\libcr_c.a(alloc.o)
__vfprintf                                        c:/nxp/mcuxpressoide_11.2.1_4149/ide/plugins/com.nxp.mcuxpresso.tools.win32_11.2.0.202008311134/tools/bin/../lib/gcc/arm-none-eabi/9.2.1/../../../../arm-none-eabi/lib/thumb/v7e-m+fp/hard\libcr_c.a(printf.o)
_deferredlazyseek                                 c:/nxp/mcuxpressoide_11.2.1_4149/ide/plugins/com.nxp.mcuxpresso.tools.win32_11.2.0.202008311134/tools/bin/../lib/gcc/arm-none-eabi/9.2.1/../../../../arm-none-eabi/lib/thumb/v7e-m+fp/hard\libcr_c.a(_deferredlazyseek.o)
                                                  c:/nxp/mcuxpressoide_11.2.1_4149/ide/plugins/com.nxp.mcuxpresso.tools.win32_11.2.0.202008311134/tools/bin/../lib/gcc/arm-none-eabi/9.2.1/../../../../arm-none-eabi/lib/thumb/v7e-m+fp/hard\libcr_c.a(_do_fflush.o)
_do_fflush                                        c:/nxp/mcuxpressoide_11.2.1_4149/ide/plugins/com.nxp.mcuxpresso.tools.win32_11.2.0.202008311134/tools/bin/../lib/gcc/arm-none-eabi/9.2.1/../../../../arm-none-eabi/lib/thumb/v7e-m+fp/hard\libcr_c.a(_do_fflush.o)
                                                  c:/nxp/mcuxpressoide_11.2.1_4149/ide/plugins/com.nxp.mcuxpresso.tools.win32_11.2.0.202008311134/tools/bin/../lib/gcc/arm-none-eabi/9.2.1/../../../../arm-none-eabi/lib/thumb/v7e-m+fp/hard\libcr_c.a(fflush.o)
_fdopen                                           c:/nxp/mcuxpressoide_11.2.1_4149/ide/plugins/com.nxp.mcuxpresso.tools.win32_11.2.0.202008311134/tools/bin/../lib/gcc/arm-none-eabi/9.2.1/../../../../arm-none-eabi/lib/thumb/v7e-m+fp/hard\libcr_c.a(_fdopen.o)
                                                  c:/nxp/mcuxpressoide_11.2.1_4149/ide/plugins/com.nxp.mcuxpresso.tools.win32_11.2.0.202008311134/tools/bin/../lib/gcc/arm-none-eabi/9.2.1/../../../../arm-none-eabi/lib/thumb/v7e-m+fp/hard\libcr_c.a(initio.o)
_fflush                                           c:/nxp/mcuxpressoide_11.2.1_4149/ide/plugins/com.nxp.mcuxpresso.tools.win32_11.2.0.202008311134/tools/bin/../lib/gcc/arm-none-eabi/9.2.1/../../../../arm-none-eabi/lib/thumb/v7e-m+fp/hard\libcr_c.a(_fflush.o)
                                                  c:/nxp/mcuxpressoide_11.2.1_4149/ide/plugins/com.nxp.mcuxpresso.tools.win32_11.2.0.202008311134/tools/bin/../lib/gcc/arm-none-eabi/9.2.1/../../../../arm-none-eabi/lib/thumb/v7e-m+fp/hard\libcr_c.a(_do_fflush.o)
                                                  c:/nxp/mcuxpressoide_11.2.1_4149/ide/plugins/com.nxp.mcuxpresso.tools.win32_11.2.0.202008311134/tools/bin/../lib/gcc/arm-none-eabi/9.2.1/../../../../arm-none-eabi/lib/thumb/v7e-m+fp/hard\libcr_c.a(_deferredlazyseek.o)
_fprintf                                          c:/nxp/mcuxpressoide_11.2.1_4149/ide/plugins/com.nxp.mcuxpresso.tools.win32_11.2.0.202008311134/tools/bin/../lib/gcc/arm-none-eabi/9.2.1/../../../../arm-none-eabi/lib/thumb/v7e-m+fp/hard\libcr_c.a(printf.o)
_init_alloc                                       c:/nxp/mcuxpressoide_11.2.1_4149/ide/plugins/com.nxp.mcuxpresso.tools.win32_11.2.0.202008311134/tools/bin/../lib/gcc/arm-none-eabi/9.2.1/../../../../arm-none-eabi/lib/thumb/v7e-m+fp/hard\libcr_c.a(__init_alloc.o)
_initio                                           c:/nxp/mcuxpressoide_11.2.1_4149/ide/plugins/com.nxp.mcuxpresso.tools.win32_11.2.0.202008311134/tools/bin/../lib/gcc/arm-none-eabi/9.2.1/../../../../arm-none-eabi/lib/thumb/v7e-m+fp/hard\libcr_c.a(initio.o)
                                                  c:/nxp/mcuxpressoide_11.2.1_4149/ide/plugins/com.nxp.mcuxpresso.tools.win32_11.2.0.202008311134/tools/bin/../lib/gcc/arm-none-eabi/9.2.1/../../../../arm-none-eabi/lib/thumb/v7e-m+fp/hard\libcr_semihost_nf.a(_cr__main.o)
_printf                                           c:/nxp/mcuxpressoide_11.2.1_4149/ide/plugins/com.nxp.mcuxpresso.tools.win32_11.2.0.202008311134/tools/bin/../lib/gcc/arm-none-eabi/9.2.1/../../../../arm-none-eabi/lib/thumb/v7e-m+fp/hard\libcr_c.a(printf.o)
                                                  ./source/BRDUINO_Nano.o
                                                  ./source/usb/virtual_com.o
_printf_char                                      c:/nxp/mcuxpressoide_11.2.1_4149/ide/plugins/com.nxp.mcuxpresso.tools.win32_11.2.0.202008311134/tools/bin/../lib/gcc/arm-none-eabi/9.2.1/../../../../arm-none-eabi/lib/thumb/v7e-m+fp/hard\libcr_c.a(printf.o)
_pvHeapLimit                                      c:/nxp/mcuxpressoide_11.2.1_4149/ide/plugins/com.nxp.mcuxpresso.tools.win32_11.2.0.202008311134/tools/bin/../lib/gcc/arm-none-eabi/9.2.1/../../../../arm-none-eabi/lib/thumb/v7e-m+fp/hard\libcr_c.a(_cr_check_heap.o)
_pvHeapStart                                      c:/nxp/mcuxpressoide_11.2.1_4149/ide/plugins/com.nxp.mcuxpresso.tools.win32_11.2.0.202008311134/tools/bin/../lib/gcc/arm-none-eabi/9.2.1/../../../../arm-none-eabi/lib/thumb/v7e-m+fp/hard\libcr_c.a(_cr_sbrk.o)
_sbrk                                             c:/nxp/mcuxpressoide_11.2.1_4149/ide/plugins/com.nxp.mcuxpresso.tools.win32_11.2.0.202008311134/tools/bin/../lib/gcc/arm-none-eabi/9.2.1/../../../../arm-none-eabi/lib/thumb/v7e-m+fp/hard\libcr_c.a(_cr_sbrk.o)
                                                  c:/nxp/mcuxpressoide_11.2.1_4149/ide/plugins/com.nxp.mcuxpresso.tools.win32_11.2.0.202008311134/tools/bin/../lib/gcc/arm-none-eabi/9.2.1/../../../../arm-none-eabi/lib/thumb/v7e-m+fp/hard\libcr_c.a(alloc.o)
_snprintf                                         c:/nxp/mcuxpressoide_11.2.1_4149/ide/plugins/com.nxp.mcuxpresso.tools.win32_11.2.0.202008311134/tools/bin/../lib/gcc/arm-none-eabi/9.2.1/../../../../arm-none-eabi/lib/thumb/v7e-m+fp/hard\libcr_c.a(printf.o)
_sprintf                                          c:/nxp/mcuxpressoide_11.2.1_4149/ide/plugins/com.nxp.mcuxpresso.tools.win32_11.2.0.202008311134/tools/bin/../lib/gcc/arm-none-eabi/9.2.1/../../../../arm-none-eabi/lib/thumb/v7e-m+fp/hard\libcr_c.a(printf.o)
_terminateio                                      c:/nxp/mcuxpressoide_11.2.1_4149/ide/plugins/com.nxp.mcuxpresso.tools.win32_11.2.0.202008311134/tools/bin/../lib/gcc/arm-none-eabi/9.2.1/../../../../arm-none-eabi/lib/thumb/v7e-m+fp/hard\libcr_c.a(initio.o)
_vStackTop                                        ./startup/startup_mk22f51212.o
_vfprintf                                         c:/nxp/mcuxpressoide_11.2.1_4149/ide/plugins/com.nxp.mcuxpresso.tools.win32_11.2.0.202008311134/tools/bin/../lib/gcc/arm-none-eabi/9.2.1/../../../../arm-none-eabi/lib/thumb/v7e-m+fp/hard\libcr_c.a(printf.o)
_vprintf                                          c:/nxp/mcuxpressoide_11.2.1_4149/ide/plugins/com.nxp.mcuxpresso.tools.win32_11.2.0.202008311134/tools/bin/../lib/gcc/arm-none-eabi/9.2.1/../../../../arm-none-eabi/lib/thumb/v7e-m+fp/hard\libcr_c.a(printf.o)
_vsnprintf                                        c:/nxp/mcuxpressoide_11.2.1_4149/ide/plugins/com.nxp.mcuxpresso.tools.win32_11.2.0.202008311134/tools/bin/../lib/gcc/arm-none-eabi/9.2.1/../../../../arm-none-eabi/lib/thumb/v7e-m+fp/hard\libcr_c.a(printf.o)
                                                  ./source/Tracealyzer/trcStreamingRecorder.o
_vsprintf                                         c:/nxp/mcuxpressoide_11.2.1_4149/ide/plugins/com.nxp.mcuxpresso.tools.win32_11.2.0.202008311134/tools/bin/../lib/gcc/arm-none-eabi/9.2.1/../../../../arm-none-eabi/lib/thumb/v7e-m+fp/hard\libcr_c.a(printf.o)
_write                                            ./source/uart.o
adc_channel                                       ./board/board.o
bInitialized                                      ./source/BRDUINO_Nano.o
bss_init                                          ./startup/startup_mk22f51212.o
calloc                                            c:/nxp/mcuxpressoide_11.2.1_4149/ide/plugins/com.nxp.mcuxpresso.tools.win32_11.2.0.202008311134/tools/bin/../lib/gcc/arm-none-eabi/9.2.1/../../../../arm-none-eabi/lib/thumb/v7e-m+fp/hard\libcr_c.a(alloc.o)
clr_rs485_data_enable                             ./source/uart.o
cmd_SUB_SYS_GET_ADC_VALUE                         ./source/CmdSystem.o
cmd_SUB_SYS_GET_ALL_ADC_VALUES                    ./source/CmdSystem.o
cmd_SUB_SYS_GET_ALL_ADC_VAL_FLOAT                 ./source/CmdSystem.o
cmd_SUB_SYS_GET_CLOCKS                            ./source/CmdSystem.o
cmd_SUB_SYS_GET_DEVICE_TYPE                       ./source/CmdSystem.o
cmd_SUB_SYS_REQUEST_PING                          ./source/CmdSystem.o
cmd_SUB_SYS_SET_DEVICE_OWN_ADDR                   ./source/CmdSystem.o
data_init                                         ./startup/startup_mk22f51212.o
dbgChannel                                        ./source/BRDUINO_Nano.o
eTaskGetState                                     ./freertos/freertos_kernel/tasks.o
errno                                             c:/nxp/mcuxpressoide_11.2.1_4149/ide/plugins/com.nxp.mcuxpresso.tools.win32_11.2.0.202008311134/tools/bin/../lib/gcc/arm-none-eabi/9.2.1/../../../../arm-none-eabi/lib/thumb/v7e-m+fp/hard\libcr_c.a(errno.o)
                                                  c:/nxp/mcuxpressoide_11.2.1_4149/ide/plugins/com.nxp.mcuxpresso.tools.win32_11.2.0.202008311134/tools/bin/../lib/gcc/arm-none-eabi/9.2.1/../../../../arm-none-eabi/lib/thumb/v7e-m+fp/hard\libcr_c.a(ftell.o)
                                                  c:/nxp/mcuxpressoide_11.2.1_4149/ide/plugins/com.nxp.mcuxpresso.tools.win32_11.2.0.202008311134/tools/bin/../lib/gcc/arm-none-eabi/9.2.1/../../../../arm-none-eabi/lib/thumb/v7e-m+fp/hard\libcr_c.a(_cr_sbrk.o)
fclose                                            c:/nxp/mcuxpressoide_11.2.1_4149/ide/plugins/com.nxp.mcuxpresso.tools.win32_11.2.0.202008311134/tools/bin/../lib/gcc/arm-none-eabi/9.2.1/../../../../arm-none-eabi/lib/thumb/v7e-m+fp/hard\libcr_c.a(fclose.o)
                                                  c:/nxp/mcuxpressoide_11.2.1_4149/ide/plugins/com.nxp.mcuxpresso.tools.win32_11.2.0.202008311134/tools/bin/../lib/gcc/arm-none-eabi/9.2.1/../../../../arm-none-eabi/lib/thumb/v7e-m+fp/hard\libcr_c.a(_fdopen.o)
                                                  c:/nxp/mcuxpressoide_11.2.1_4149/ide/plugins/com.nxp.mcuxpresso.tools.win32_11.2.0.202008311134/tools/bin/../lib/gcc/arm-none-eabi/9.2.1/../../../../arm-none-eabi/lib/thumb/v7e-m+fp/hard\libcr_c.a(initio.o)
fflush                                            c:/nxp/mcuxpressoide_11.2.1_4149/ide/plugins/com.nxp.mcuxpresso.tools.win32_11.2.0.202008311134/tools/bin/../lib/gcc/arm-none-eabi/9.2.1/../../../../arm-none-eabi/lib/thumb/v7e-m+fp/hard\libcr_c.a(fflush.o)
                                                  c:/nxp/mcuxpressoide_11.2.1_4149/ide/plugins/com.nxp.mcuxpresso.tools.win32_11.2.0.202008311134/tools/bin/../lib/gcc/arm-none-eabi/9.2.1/../../../../arm-none-eabi/lib/thumb/v7e-m+fp/hard\libcr_c.a(fclose.o)
fmc_flash_cache_clear                             ./drivers/fsl_ftfx_cache.o
fmc_flash_prefetch_speculation_clear              ./drivers/fsl_ftfx_cache.o
free                                              c:/nxp/mcuxpressoide_11.2.1_4149/ide/plugins/com.nxp.mcuxpresso.tools.win32_11.2.0.202008311134/tools/bin/../lib/gcc/arm-none-eabi/9.2.1/../../../../arm-none-eabi/lib/thumb/v7e-m+fp/hard\libcr_c.a(alloc.o)
                                                  c:/nxp/mcuxpressoide_11.2.1_4149/ide/plugins/com.nxp.mcuxpresso.tools.win32_11.2.0.202008311134/tools/bin/../lib/gcc/arm-none-eabi/9.2.1/../../../../arm-none-eabi/lib/thumb/v7e-m+fp/hard\libcr_c.a(fclose.o)
                                                  c:/nxp/mcuxpressoide_11.2.1_4149/ide/plugins/com.nxp.mcuxpresso.tools.win32_11.2.0.202008311134/tools/bin/../lib/gcc/arm-none-eabi/9.2.1/../../../../arm-none-eabi/lib/thumb/v7e-m+fp/hard\libcr_c.a(printf.o)
                                                  ./drivers/fsl_common.o
fseek                                             c:/nxp/mcuxpressoide_11.2.1_4149/ide/plugins/com.nxp.mcuxpresso.tools.win32_11.2.0.202008311134/tools/bin/../lib/gcc/arm-none-eabi/9.2.1/../../../../arm-none-eabi/lib/thumb/v7e-m+fp/hard\libcr_c.a(fseek.o)
                                                  c:/nxp/mcuxpressoide_11.2.1_4149/ide/plugins/com.nxp.mcuxpresso.tools.win32_11.2.0.202008311134/tools/bin/../lib/gcc/arm-none-eabi/9.2.1/../../../../arm-none-eabi/lib/thumb/v7e-m+fp/hard\libcr_c.a(_do_fflush.o)
                                                  c:/nxp/mcuxpressoide_11.2.1_4149/ide/plugins/com.nxp.mcuxpresso.tools.win32_11.2.0.202008311134/tools/bin/../lib/gcc/arm-none-eabi/9.2.1/../../../../arm-none-eabi/lib/thumb/v7e-m+fp/hard\libcr_c.a(_fdopen.o)
                                                  c:/nxp/mcuxpressoide_11.2.1_4149/ide/plugins/com.nxp.mcuxpresso.tools.win32_11.2.0.202008311134/tools/bin/../lib/gcc/arm-none-eabi/9.2.1/../../../../arm-none-eabi/lib/thumb/v7e-m+fp/hard\libcr_c.a(_deferredlazyseek.o)
ftell                                             c:/nxp/mcuxpressoide_11.2.1_4149/ide/plugins/com.nxp.mcuxpresso.tools.win32_11.2.0.202008311134/tools/bin/../lib/gcc/arm-none-eabi/9.2.1/../../../../arm-none-eabi/lib/thumb/v7e-m+fp/hard\libcr_c.a(ftell.o)
                                                  c:/nxp/mcuxpressoide_11.2.1_4149/ide/plugins/com.nxp.mcuxpresso.tools.win32_11.2.0.202008311134/tools/bin/../lib/gcc/arm-none-eabi/9.2.1/../../../../arm-none-eabi/lib/thumb/v7e-m+fp/hard\libcr_c.a(fseek.o)
gCnt                                              ./board/board.o
gUseRtos_c                                        ./component/osa/fsl_os_abstraction_free_rtos.o
g_UsbDeviceCdcVcomCicEndpoints                    ./source/usb/usb_device_descriptor.o
g_UsbDeviceCdcVcomCommunicationInterface          ./source/usb/usb_device_descriptor.o
g_UsbDeviceCdcVcomConfig                          ./source/usb/usb_device_descriptor.o
                                                  ./source/usb/virtual_com.o
g_UsbDeviceCdcVcomDataInterface                   ./source/usb/usb_device_descriptor.o
g_UsbDeviceCdcVcomDicEndpoints                    ./source/usb/usb_device_descriptor.o
                                                  ./source/usb/virtual_com.o
g_UsbDeviceCdcVcomInterfaceList                   ./source/usb/usb_device_descriptor.o
g_UsbDeviceCdcVcomInterfaces                      ./source/usb/usb_device_descriptor.o
g_UsbDeviceConfigurationDescriptor                ./source/usb/usb_device_descriptor.o
g_UsbDeviceDescriptor                             ./source/usb/usb_device_descriptor.o
g_UsbDeviceLanguage                               ./source/usb/usb_device_descriptor.o
g_UsbDeviceLanguageList                           ./source/usb/usb_device_descriptor.o
g_UsbDeviceString0                                ./source/usb/usb_device_descriptor.o
g_UsbDeviceString1                                ./source/usb/usb_device_descriptor.o
g_UsbDeviceString2                                ./source/usb/usb_device_descriptor.o
g_UsbDeviceStringDescriptorArray                  ./source/usb/usb_device_descriptor.o
g_UsbDeviceStringDescriptorLength                 ./source/usb/usb_device_descriptor.o
g_dspiDummyData                                   ./drivers/fsl_dspi.o
g_pfnVectors                                      ./startup/startup_mk22f51212.o
g_xtal0Freq                                       ./drivers/fsl_clock.o
                                                  ./source/CmdSystem.o
                                                  ./source/BRDUINO_Nano.o
g_xtal32Freq                                      ./drivers/fsl_clock.o
                                                  ./board/clock_config.o
get_USB_Error                                     ./source/usb/virtual_com.o
h1                                                ./source/uart.o
h2                                                ./source/uart.o
isPendingContextSwitch                            ./source/Tracealyzer/trcStreamingRecorder.o
main                                              ./source/BRDUINO_Nano.o
                                                  c:/nxp/mcuxpressoide_11.2.1_4149/ide/plugins/com.nxp.mcuxpresso.tools.win32_11.2.0.202008311134/tools/bin/../lib/gcc/arm-none-eabi/9.2.1/../../../../arm-none-eabi/lib/thumb/v7e-m+fp/hard\libcr_semihost_nf.a(_cr__main.o)
main_task                                         ./component/osa/fsl_os_abstraction_free_rtos.o
malloc                                            c:/nxp/mcuxpressoide_11.2.1_4149/ide/plugins/com.nxp.mcuxpresso.tools.win32_11.2.0.202008311134/tools/bin/../lib/gcc/arm-none-eabi/9.2.1/../../../../arm-none-eabi/lib/thumb/v7e-m+fp/hard\libcr_c.a(alloc.o)
                                                  c:/nxp/mcuxpressoide_11.2.1_4149/ide/plugins/com.nxp.mcuxpresso.tools.win32_11.2.0.202008311134/tools/bin/../lib/gcc/arm-none-eabi/9.2.1/../../../../arm-none-eabi/lib/thumb/v7e-m+fp/hard\libcr_c.a(printf.o)
                                                  ./drivers/fsl_common.o
mcgConfig_BOARD_BootClockRUN                      ./board/clock_config.o
memcpy                                            c:/nxp/mcuxpressoide_11.2.1_4149/ide/plugins/com.nxp.mcuxpresso.tools.win32_11.2.0.202008311134/tools/bin/../lib/gcc/arm-none-eabi/9.2.1/../../../../arm-none-eabi/lib/thumb/v7e-m+fp/hard\libcr_c.a(memcpy.o)
                                                  c:/nxp/mcuxpressoide_11.2.1_4149/ide/plugins/com.nxp.mcuxpresso.tools.win32_11.2.0.202008311134/tools/bin/../lib/gcc/arm-none-eabi/9.2.1/../../../../arm-none-eabi/lib/thumb/v7e-m+fp/hard\libcr_c.a(alloc.o)
                                                  ./drivers/fsl_ftfx_controller.o
                                                  ./drivers/fsl_ftfx_cache.o
                                                  ./freertos/freertos_kernel/stream_buffer.o
                                                  ./freertos/freertos_kernel/queue.o
                                                  ./source/uart.o
                                                  ./source/CommandHandler.o
                                                  ./source/CmdInfo.o
                                                  ./source/Tracealyzer/trcStreamingRecorder.o
                                                  ./source/Tracealyzer/streamports/Jlink_RTT/SEGGER_RTT.o
                                                  ./source/usb/virtual_com.o
                                                  ./usb/device/source/khci/usb_device_khci.o
memset                                            c:/nxp/mcuxpressoide_11.2.1_4149/ide/plugins/com.nxp.mcuxpresso.tools.win32_11.2.0.202008311134/tools/bin/../lib/gcc/arm-none-eabi/9.2.1/../../../../arm-none-eabi/lib/thumb/v7e-m+fp/hard\libcr_c.a(memset.o)
                                                  c:/nxp/mcuxpressoide_11.2.1_4149/ide/plugins/com.nxp.mcuxpresso.tools.win32_11.2.0.202008311134/tools/bin/../lib/gcc/arm-none-eabi/9.2.1/../../../../arm-none-eabi/lib/thumb/v7e-m+fp/hard\libcr_c.a(fclose.o)
                                                  c:/nxp/mcuxpressoide_11.2.1_4149/ide/plugins/com.nxp.mcuxpresso.tools.win32_11.2.0.202008311134/tools/bin/../lib/gcc/arm-none-eabi/9.2.1/../../../../arm-none-eabi/lib/thumb/v7e-m+fp/hard\libcr_c.a(printf.o)
                                                  c:/nxp/mcuxpressoide_11.2.1_4149/ide/plugins/com.nxp.mcuxpresso.tools.win32_11.2.0.202008311134/tools/bin/../lib/gcc/arm-none-eabi/9.2.1/../../../../arm-none-eabi/lib/thumb/v7e-m+fp/hard\libcr_c.a(alloc.o)
                                                  ./component/osa/fsl_os_abstraction_free_rtos.o
                                                  ./drivers/fsl_wdog.o
                                                  ./drivers/fsl_vref.o
                                                  ./drivers/fsl_uart.o
                                                  ./drivers/fsl_rtc.o
                                                  ./drivers/fsl_i2c.o
                                                  ./drivers/fsl_ftm.o
                                                  ./drivers/fsl_ftfx_cache.o
                                                  ./drivers/fsl_dspi.o
                                                  ./drivers/fsl_dac.o
                                                  ./drivers/fsl_crc.o
                                                  ./drivers/fsl_adc16.o
                                                  ./freertos/freertos_kernel/tasks.o
                                                  ./freertos/freertos_kernel/stream_buffer.o
oscConfig_BOARD_BootClockRUN                      ./board/clock_config.o
packet_len                                        ./source/uart.o
pcQueueGetName                                    ./freertos/freertos_kernel/queue.o
pcTaskGetName                                     ./freertos/freertos_kernel/tasks.o
pcTimerGetName                                    ./freertos/freertos_kernel/timers.o
prvAddTaskToStackMonitor                          ./source/Tracealyzer/trcKernelPort.o
                                                  ./freertos/freertos_kernel/tasks.o
prvIsNewTCB                                       ./source/Tracealyzer/trcKernelPort.o
                                                  ./freertos/freertos_kernel/tasks.o
prvIsValidCommand                                 ./source/Tracealyzer/trcStreamingRecorder.o
                                                  ./source/Tracealyzer/trcKernelPort.o
prvPagedEventBufferGetWritePointer                ./source/Tracealyzer/trcStreamingRecorder.o
prvPagedEventBufferInit                           ./source/Tracealyzer/trcStreamingRecorder.o
prvPagedEventBufferTransfer                       ./source/Tracealyzer/trcStreamingRecorder.o
prvProcessCommand                                 ./source/Tracealyzer/trcStreamingRecorder.o
                                                  ./source/Tracealyzer/trcKernelPort.o
prvRemoveTaskFromStackMonitor                     ./source/Tracealyzer/trcKernelPort.o
                                                  ./freertos/freertos_kernel/tasks.o
prvReportStackUsage                               ./source/Tracealyzer/trcKernelPort.o
prvTraceDeleteObjectData                          ./source/Tracealyzer/trcStreamingRecorder.o
                                                  ./freertos/freertos_kernel/tasks.o
prvTraceDeleteSymbol                              ./source/Tracealyzer/trcStreamingRecorder.o
                                                  ./freertos/freertos_kernel/tasks.o
                                                  ./freertos/freertos_kernel/queue.o
prvTraceError                                     ./source/Tracealyzer/trcStreamingRecorder.o
                                                  ./source/Tracealyzer/trcKernelPort.o
prvTraceGetCurrentTaskHandle                      ./source/Tracealyzer/trcKernelPort.o
                                                  ./freertos/freertos_kernel/tasks.o
                                                  ./freertos/freertos_kernel/queue.o
                                                  ./freertos/freertos_kernel/portable/MemMang/heap_4.o
                                                  ./source/Tracealyzer/trcStreamingRecorder.o
prvTraceGetQueueNumber                            ./source/Tracealyzer/trcKernelPort.o
prvTraceGetQueueNumberHigh16                      ./source/Tracealyzer/trcKernelPort.o
                                                  ./freertos/freertos_kernel/queue.o
prvTraceGetQueueNumberLow16                       ./source/Tracealyzer/trcKernelPort.o
prvTraceGetQueueType                              ./source/Tracealyzer/trcKernelPort.o
prvTraceGetTaskNumberHigh16                       ./source/Tracealyzer/trcKernelPort.o
                                                  ./freertos/freertos_kernel/tasks.o
                                                  ./freertos/freertos_kernel/queue.o
                                                  ./freertos/freertos_kernel/portable/MemMang/heap_4.o
prvTraceGetTaskNumberLow16                        ./source/Tracealyzer/trcKernelPort.o
prvTraceInitCortexM                               ./source/Tracealyzer/trcStreamingRecorder.o
                                                  ./source/Tracealyzer/trcKernelPort.o
prvTraceIsSchedulerSuspended                      ./source/Tracealyzer/trcKernelPort.o
                                                  ./source/Tracealyzer/trcStreamingRecorder.o
prvTraceSaveObjectData                            ./source/Tracealyzer/trcStreamingRecorder.o
                                                  ./freertos/freertos_kernel/tasks.o
prvTraceSaveObjectSymbol                          ./source/Tracealyzer/trcStreamingRecorder.o
                                                  ./freertos/freertos_kernel/tasks.o
                                                  ./freertos/freertos_kernel/queue.o
prvTraceSaveSymbol                                ./source/Tracealyzer/trcStreamingRecorder.o
prvTraceSetQueueNumberHigh16                      ./source/Tracealyzer/trcKernelPort.o
                                                  ./freertos/freertos_kernel/queue.o
prvTraceSetQueueNumberLow16                       ./source/Tracealyzer/trcKernelPort.o
prvTraceSetTaskNumberHigh16                       ./source/Tracealyzer/trcKernelPort.o
                                                  ./freertos/freertos_kernel/tasks.o
prvTraceSetTaskNumberLow16                        ./source/Tracealyzer/trcKernelPort.o
prvTraceStoreEvent                                ./source/Tracealyzer/trcStreamingRecorder.o
prvTraceStoreEvent0                               ./source/Tracealyzer/trcStreamingRecorder.o
prvTraceStoreEvent1                               ./source/Tracealyzer/trcStreamingRecorder.o
                                                  ./freertos/freertos_kernel/tasks.o
                                                  ./freertos/freertos_kernel/queue.o
prvTraceStoreEvent2                               ./source/Tracealyzer/trcStreamingRecorder.o
                                                  ./freertos/freertos_kernel/tasks.o
                                                  ./freertos/freertos_kernel/queue.o
                                                  ./freertos/freertos_kernel/portable/MemMang/heap_4.o
                                                  ./source/Tracealyzer/trcKernelPort.o
prvTraceStoreEvent3                               ./source/Tracealyzer/trcStreamingRecorder.o
                                                  ./freertos/freertos_kernel/queue.o
prvTraceStoreSimpleStringEventHelper              ./source/Tracealyzer/trcStreamingRecorder.o
prvTraceStoreStringEvent                          ./source/Tracealyzer/trcStreamingRecorder.o
                                                  ./freertos/freertos_kernel/tasks.o
                                                  ./freertos/freertos_kernel/queue.o
prvTraceWarning                                   ./source/Tracealyzer/trcStreamingRecorder.o
                                                  ./source/Tracealyzer/trcKernelPort.o
pvPortMalloc                                      ./freertos/freertos_kernel/portable/MemMang/heap_4.o
                                                  ./component/osa/fsl_os_abstraction_free_rtos.o
                                                  ./freertos/freertos_kernel/timers.o
                                                  ./freertos/freertos_kernel/tasks.o
                                                  ./freertos/freertos_kernel/stream_buffer.o
                                                  ./freertos/freertos_kernel/queue.o
                                                  ./freertos/freertos_kernel/event_groups.o
pvTaskGetThreadLocalStoragePointer                ./freertos/freertos_kernel/tasks.o
pvTaskIncrementMutexHeldCount                     ./freertos/freertos_kernel/tasks.o
                                                  ./freertos/freertos_kernel/queue.o
pvTimerGetTimerID                                 ./freertos/freertos_kernel/timers.o
pxCurrentTCB                                      ./freertos/freertos_kernel/tasks.o
                                                  ./freertos/freertos_kernel/portable/GCC/ARM_CM4F/port.o
pxPortInitialiseStack                             ./freertos/freertos_kernel/portable/GCC/ARM_CM4F/port.o
                                                  ./freertos/freertos_kernel/tasks.o
readFromRTT                                       ./source/Tracealyzer/streamports/Jlink_RTT/trcStreamingPort.o
                                                  ./source/Tracealyzer/trcKernelPort.o
realloc                                           c:/nxp/mcuxpressoide_11.2.1_4149/ide/plugins/com.nxp.mcuxpresso.tools.win32_11.2.0.202008311134/tools/bin/../lib/gcc/arm-none-eabi/9.2.1/../../../../arm-none-eabi/lib/thumb/v7e-m+fp/hard\libcr_c.a(alloc.o)
remove                                            c:/nxp/mcuxpressoide_11.2.1_4149/ide/plugins/com.nxp.mcuxpresso.tools.win32_11.2.0.202008311134/tools/bin/../lib/gcc/arm-none-eabi/9.2.1/../../../../arm-none-eabi/lib/thumb/v7e-m+fp/hard\libcr_c.a(remove.o)
                                                  c:/nxp/mcuxpressoide_11.2.1_4149/ide/plugins/com.nxp.mcuxpresso.tools.win32_11.2.0.202008311134/tools/bin/../lib/gcc/arm-none-eabi/9.2.1/../../../../arm-none-eabi/lib/thumb/v7e-m+fp/hard\libcr_c.a(fclose.o)
rename                                            c:/nxp/mcuxpressoide_11.2.1_4149/ide/plugins/com.nxp.mcuxpresso.tools.win32_11.2.0.202008311134/tools/bin/../lib/gcc/arm-none-eabi/9.2.1/../../../../arm-none-eabi/lib/thumb/v7e-m+fp/hard\libcr_c.a(remove.o)
sGPIOconfig                                       ./board/board.o
s_cdcVcom                                         ./source/usb/virtual_com.o
send_rs485_char                                   ./source/uart.o
set_rs485_data_enable                             ./source/uart.o
setvbuf                                           c:/nxp/mcuxpressoide_11.2.1_4149/ide/plugins/com.nxp.mcuxpresso.tools.win32_11.2.0.202008311134/tools/bin/../lib/gcc/arm-none-eabi/9.2.1/../../../../arm-none-eabi/lib/thumb/v7e-m+fp/hard\libcr_c.a(setvbuf.o)
                                                  c:/nxp/mcuxpressoide_11.2.1_4149/ide/plugins/com.nxp.mcuxpresso.tools.win32_11.2.0.202008311134/tools/bin/../lib/gcc/arm-none-eabi/9.2.1/../../../../arm-none-eabi/lib/thumb/v7e-m+fp/hard\libcr_c.a(initio.o)
simConfig_BOARD_BootClockRUN                      ./board/clock_config.o
startup_task                                      ./component/osa/fsl_os_abstraction_free_rtos.o
strcpy                                            c:/nxp/mcuxpressoide_11.2.1_4149/ide/plugins/com.nxp.mcuxpresso.tools.win32_11.2.0.202008311134/tools/bin/../lib/gcc/arm-none-eabi/9.2.1/../../../../arm-none-eabi/lib/thumb/v7e-m+fp/hard\libcr_c.a(strcpy.o)
                                                  ./source/CommandHandler.o
                                                  ./source/Tracealyzer/streamports/Jlink_RTT/SEGGER_RTT.o
strlen                                            c:/nxp/mcuxpressoide_11.2.1_4149/ide/plugins/com.nxp.mcuxpresso.tools.win32_11.2.0.202008311134/tools/bin/../lib/gcc/arm-none-eabi/9.2.1/../../../../arm-none-eabi/lib/thumb/v7e-m+fp/hard\libcr_c.a(strlen.o)
                                                  c:/nxp/mcuxpressoide_11.2.1_4149/ide/plugins/com.nxp.mcuxpresso.tools.win32_11.2.0.202008311134/tools/bin/../lib/gcc/arm-none-eabi/9.2.1/../../../../arm-none-eabi/lib/thumb/v7e-m+fp/hard\libcr_c.a(remove.o)
                                                  c:/nxp/mcuxpressoide_11.2.1_4149/ide/plugins/com.nxp.mcuxpresso.tools.win32_11.2.0.202008311134/tools/bin/../lib/gcc/arm-none-eabi/9.2.1/../../../../arm-none-eabi/lib/thumb/v7e-m+fp/hard\libcr_c.a(printf.o)
                                                  ./source/Tracealyzer/streamports/Jlink_RTT/SEGGER_RTT.o
tasksInStackMonitor                               ./source/Tracealyzer/trcKernelPort.o
tasksNotIncluded                                  ./source/Tracealyzer/trcKernelPort.o
timestampFrequency                                ./source/Tracealyzer/trcStreamingRecorder.o
trcHeapCounter                                    ./source/Tracealyzer/trcStreamingRecorder.o
                                                  ./freertos/freertos_kernel/portable/MemMang/heap_4.o
trcWarningChannel                                 ./source/Tracealyzer/trcKernelPort.o
                                                  ./source/Tracealyzer/trcStreamingRecorder.o
ucQueueGetQueueType                               ./freertos/freertos_kernel/queue.o
                                                  ./source/Tracealyzer/trcKernelPort.o
ucStreamBufferGetStreamBufferType                 ./freertos/freertos_kernel/stream_buffer.o
uiTraceSystemState                                ./source/Tracealyzer/trcStreamingRecorder.o
                                                  ./freertos/freertos_kernel/tasks.o
uiTraceTickCount                                  ./source/Tracealyzer/trcStreamingRecorder.o
                                                  ./freertos/freertos_kernel/tasks.o
ulTaskNotifyTake                                  ./freertos/freertos_kernel/tasks.o
ulTaskNotifyValueClear                            ./freertos/freertos_kernel/tasks.o
usb_main_init                                     ./source/usb/virtual_com.o
                                                  ./source/BRDUINO_Nano.o
uxEventGroupGetNumber                             ./freertos/freertos_kernel/event_groups.o
uxListRemove                                      ./freertos/freertos_kernel/list.o
                                                  ./freertos/freertos_kernel/timers.o
                                                  ./freertos/freertos_kernel/tasks.o
uxQueueGetQueueNumber                             ./freertos/freertos_kernel/queue.o
                                                  ./source/Tracealyzer/trcKernelPort.o
uxQueueMessagesWaiting                            ./freertos/freertos_kernel/queue.o
uxQueueMessagesWaitingFromISR                     ./freertos/freertos_kernel/queue.o
uxQueueSpacesAvailable                            ./freertos/freertos_kernel/queue.o
uxStreamBufferGetStreamBufferNumber               ./freertos/freertos_kernel/stream_buffer.o
uxTaskGetNumberOfTasks                            ./freertos/freertos_kernel/tasks.o
uxTaskGetStackHighWaterMark                       ./freertos/freertos_kernel/tasks.o
                                                  ./source/Tracealyzer/trcKernelPort.o
uxTaskGetSystemState                              ./freertos/freertos_kernel/tasks.o
uxTaskGetTaskNumber                               ./freertos/freertos_kernel/tasks.o
                                                  ./source/Tracealyzer/trcKernelPort.o
uxTaskPriorityGet                                 ./freertos/freertos_kernel/tasks.o
uxTaskPriorityGetFromISR                          ./freertos/freertos_kernel/tasks.o
uxTaskResetEventItemValue                         ./freertos/freertos_kernel/tasks.o
                                                  ./freertos/freertos_kernel/event_groups.o
uxTimerGetReloadMode                              ./freertos/freertos_kernel/timers.o
uxTimerGetTimerNumber                             ./freertos/freertos_kernel/timers.o
vApplicationMallocFailedHook                      ./source/BRDUINO_Nano.o
vApplicationStackOverflowHook                     ./source/BRDUINO_Nano.o
vEventGroupClearBitsCallback                      ./freertos/freertos_kernel/event_groups.o
vEventGroupDelete                                 ./freertos/freertos_kernel/event_groups.o
                                                  ./component/osa/fsl_os_abstraction_free_rtos.o
vEventGroupSetBitsCallback                        ./freertos/freertos_kernel/event_groups.o
vEventGroupSetNumber                              ./freertos/freertos_kernel/event_groups.o
vListInitialise                                   ./freertos/freertos_kernel/list.o
                                                  ./freertos/freertos_kernel/timers.o
                                                  ./freertos/freertos_kernel/tasks.o
                                                  ./freertos/freertos_kernel/queue.o
                                                  ./freertos/freertos_kernel/event_groups.o
vListInitialiseItem                               ./freertos/freertos_kernel/list.o
                                                  ./freertos/freertos_kernel/timers.o
                                                  ./freertos/freertos_kernel/tasks.o
vListInsert                                       ./freertos/freertos_kernel/list.o
                                                  ./freertos/freertos_kernel/timers.o
                                                  ./freertos/freertos_kernel/tasks.o
vListInsertEnd                                    ./freertos/freertos_kernel/list.o
                                                  ./freertos/freertos_kernel/tasks.o
vPortEndScheduler                                 ./freertos/freertos_kernel/portable/GCC/ARM_CM4F/port.o
                                                  ./freertos/freertos_kernel/tasks.o
vPortEnterCritical                                ./freertos/freertos_kernel/portable/GCC/ARM_CM4F/port.o
                                                  ./component/osa/fsl_os_abstraction_free_rtos.o
                                                  ./freertos/freertos_kernel/timers.o
                                                  ./freertos/freertos_kernel/tasks.o
                                                  ./freertos/freertos_kernel/stream_buffer.o
                                                  ./freertos/freertos_kernel/queue.o
                                                  ./freertos/freertos_kernel/event_groups.o
                                                  ./freertos/freertos_kernel/portable/MemMang/heap_4.o
vPortExitCritical                                 ./freertos/freertos_kernel/portable/GCC/ARM_CM4F/port.o
                                                  ./component/osa/fsl_os_abstraction_free_rtos.o
                                                  ./freertos/freertos_kernel/timers.o
                                                  ./freertos/freertos_kernel/tasks.o
                                                  ./freertos/freertos_kernel/stream_buffer.o
                                                  ./freertos/freertos_kernel/queue.o
                                                  ./freertos/freertos_kernel/event_groups.o
                                                  ./freertos/freertos_kernel/portable/MemMang/heap_4.o
vPortFree                                         ./freertos/freertos_kernel/portable/MemMang/heap_4.o
                                                  ./component/osa/fsl_os_abstraction_free_rtos.o
                                                  ./freertos/freertos_kernel/timers.o
                                                  ./freertos/freertos_kernel/tasks.o
                                                  ./freertos/freertos_kernel/stream_buffer.o
                                                  ./freertos/freertos_kernel/queue.o
                                                  ./freertos/freertos_kernel/event_groups.o
vPortGetHeapStats                                 ./freertos/freertos_kernel/portable/MemMang/heap_4.o
vPortInitialiseBlocks                             ./freertos/freertos_kernel/portable/MemMang/heap_4.o
vPortSetupTimerInterrupt                          ./freertos/freertos_kernel/portable/GCC/ARM_CM4F/port.o
vPortValidateInterruptPriority                    ./freertos/freertos_kernel/portable/GCC/ARM_CM4F/port.o
                                                  ./freertos/freertos_kernel/tasks.o
                                                  ./freertos/freertos_kernel/queue.o
vQueueAddToRegistry                               ./freertos/freertos_kernel/queue.o
                                                  ./freertos/freertos_kernel/timers.o
vQueueDelete                                      ./freertos/freertos_kernel/queue.o
                                                  ./component/osa/fsl_os_abstraction_free_rtos.o
vQueueSetQueueNumber                              ./freertos/freertos_kernel/queue.o
                                                  ./source/Tracealyzer/trcKernelPort.o
vQueueUnregisterQueue                             ./freertos/freertos_kernel/queue.o
vQueueWaitForMessageRestricted                    ./freertos/freertos_kernel/queue.o
                                                  ./freertos/freertos_kernel/timers.o
vStreamBufferDelete                               ./freertos/freertos_kernel/stream_buffer.o
vStreamBufferSetStreamBufferNumber                ./freertos/freertos_kernel/stream_buffer.o
vTaskDelay                                        ./freertos/freertos_kernel/tasks.o
                                                  ./component/osa/fsl_os_abstraction_free_rtos.o
                                                  ./source/Misc.o
                                                  ./source/CommandHandler.o
                                                  ./source/Tracealyzer/trcKernelPort.o
                                                  ./source/usb/virtual_com.o
vTaskDelayUntil                                   ./freertos/freertos_kernel/tasks.o
vTaskDelete                                       ./freertos/freertos_kernel/tasks.o
vTaskEndScheduler                                 ./freertos/freertos_kernel/tasks.o
vTaskGetInfo                                      ./freertos/freertos_kernel/tasks.o
vTaskInternalSetTimeOutState                      ./freertos/freertos_kernel/tasks.o
                                                  ./freertos/freertos_kernel/queue.o
vTaskMissedYield                                  ./freertos/freertos_kernel/tasks.o
                                                  ./freertos/freertos_kernel/queue.o
vTaskNotifyGiveFromISR                            ./freertos/freertos_kernel/tasks.o
vTaskPlaceOnEventList                             ./freertos/freertos_kernel/tasks.o
                                                  ./freertos/freertos_kernel/queue.o
vTaskPlaceOnEventListRestricted                   ./freertos/freertos_kernel/tasks.o
                                                  ./freertos/freertos_kernel/queue.o
vTaskPlaceOnUnorderedEventList                    ./freertos/freertos_kernel/tasks.o
                                                  ./freertos/freertos_kernel/event_groups.o
vTaskPriorityDisinheritAfterTimeout               ./freertos/freertos_kernel/tasks.o
                                                  ./freertos/freertos_kernel/queue.o
vTaskPrioritySet                                  ./freertos/freertos_kernel/tasks.o
vTaskRemoveFromUnorderedEventList                 ./freertos/freertos_kernel/tasks.o
                                                  ./freertos/freertos_kernel/event_groups.o
vTaskResume                                       ./freertos/freertos_kernel/tasks.o
vTaskSetTaskNumber                                ./freertos/freertos_kernel/tasks.o
                                                  ./source/Tracealyzer/trcKernelPort.o
vTaskSetThreadLocalStoragePointer                 ./freertos/freertos_kernel/tasks.o
vTaskSetTimeOutState                              ./freertos/freertos_kernel/tasks.o
                                                  ./freertos/freertos_kernel/stream_buffer.o
vTaskStartScheduler                               ./freertos/freertos_kernel/tasks.o
                                                  ./source/BRDUINO_Nano.o
vTaskSuspend                                      ./freertos/freertos_kernel/tasks.o
vTaskSuspendAll                                   ./freertos/freertos_kernel/tasks.o
                                                  ./freertos/freertos_kernel/timers.o
                                                  ./freertos/freertos_kernel/stream_buffer.o
                                                  ./freertos/freertos_kernel/queue.o
                                                  ./freertos/freertos_kernel/event_groups.o
                                                  ./freertos/freertos_kernel/portable/MemMang/heap_4.o
vTaskSwitchContext                                ./freertos/freertos_kernel/tasks.o
                                                  ./freertos/freertos_kernel/portable/GCC/ARM_CM4F/port.o
vTimerSetReloadMode                               ./freertos/freertos_kernel/timers.o
vTimerSetTimerID                                  ./freertos/freertos_kernel/timers.o
vTimerSetTimerNumber                              ./freertos/freertos_kernel/timers.o
vTraceClearError                                  ./source/Tracealyzer/trcStreamingRecorder.o
vTraceConsoleChannelPrintF                        ./source/Tracealyzer/trcStreamingRecorder.o
vTraceEnable                                      ./source/Tracealyzer/trcKernelPort.o
                                                  ./source/BRDUINO_Nano.o
vTraceInstanceFinishedNext                        ./source/Tracealyzer/trcStreamingRecorder.o
vTraceInstanceFinishedNow                         ./source/Tracealyzer/trcStreamingRecorder.o
vTracePrint                                       ./source/Tracealyzer/trcStreamingRecorder.o
vTracePrintF                                      ./source/Tracealyzer/trcStreamingRecorder.o
                                                  ./board/board.o
vTraceSetFilterGroup                              ./source/Tracealyzer/trcStreamingRecorder.o
vTraceSetFilterMask                               ./source/Tracealyzer/trcStreamingRecorder.o
vTraceSetFrequency                                ./source/Tracealyzer/trcStreamingRecorder.o
vTraceSetMutexName                                ./source/Tracealyzer/trcKernelPort.o
vTraceSetQueueName                                ./source/Tracealyzer/trcKernelPort.o
vTraceSetSemaphoreName                            ./source/Tracealyzer/trcKernelPort.o
vTraceStop                                        ./source/Tracealyzer/trcStreamingRecorder.o
                                                  ./source/Tracealyzer/trcKernelPort.o
vTraceStoreISRBegin                               ./source/Tracealyzer/trcStreamingRecorder.o
vTraceStoreISREnd                                 ./source/Tracealyzer/trcStreamingRecorder.o
vTraceStoreKernelObjectName                       ./source/Tracealyzer/trcStreamingRecorder.o
                                                  ./source/Tracealyzer/trcKernelPort.o
vTraceVPrintF                                     ./source/Tracealyzer/trcStreamingRecorder.o
wait_rs485_tx_done                                ./source/uart.o
writeToRTT                                        ./source/Tracealyzer/streamports/Jlink_RTT/trcStreamingPort.o
                                                  ./source/Tracealyzer/trcStreamingRecorder.o
xEventGroupClearBits                              ./freertos/freertos_kernel/event_groups.o
                                                  ./component/osa/fsl_os_abstraction_free_rtos.o
xEventGroupClearBitsFromISR                       ./freertos/freertos_kernel/event_groups.o
                                                  ./component/osa/fsl_os_abstraction_free_rtos.o
xEventGroupCreate                                 ./freertos/freertos_kernel/event_groups.o
                                                  ./component/osa/fsl_os_abstraction_free_rtos.o
xEventGroupGetBitsFromISR                         ./freertos/freertos_kernel/event_groups.o
                                                  ./component/osa/fsl_os_abstraction_free_rtos.o
xEventGroupSetBits                                ./freertos/freertos_kernel/event_groups.o
                                                  ./component/osa/fsl_os_abstraction_free_rtos.o
xEventGroupSetBitsFromISR                         ./freertos/freertos_kernel/event_groups.o
                                                  ./component/osa/fsl_os_abstraction_free_rtos.o
xEventGroupSync                                   ./freertos/freertos_kernel/event_groups.o
xEventGroupWaitBits                               ./freertos/freertos_kernel/event_groups.o
                                                  ./component/osa/fsl_os_abstraction_free_rtos.o
xMutex_CmdHandler                                 ./source/CommandHandler.o
xPortGetFreeHeapSize                              ./freertos/freertos_kernel/portable/MemMang/heap_4.o
xPortGetMinimumEverFreeHeapSize                   ./freertos/freertos_kernel/portable/MemMang/heap_4.o
xPortStartScheduler                               ./freertos/freertos_kernel/portable/GCC/ARM_CM4F/port.o
                                                  ./freertos/freertos_kernel/tasks.o
xQueueCreateCountingSemaphore                     ./freertos/freertos_kernel/queue.o
                                                  ./component/osa/fsl_os_abstraction_free_rtos.o
xQueueCreateMutex                                 ./freertos/freertos_kernel/queue.o
                                                  ./component/osa/fsl_os_abstraction_free_rtos.o
                                                  ./source/CommandHandler.o
xQueueGenericCreate                               ./freertos/freertos_kernel/queue.o
                                                  ./component/osa/fsl_os_abstraction_free_rtos.o
                                                  ./freertos/freertos_kernel/timers.o
                                                  ./source/CommandHandler.o
xQueueGenericReset                                ./freertos/freertos_kernel/queue.o
xQueueGenericSend                                 ./freertos/freertos_kernel/queue.o
                                                  ./component/osa/fsl_os_abstraction_free_rtos.o
                                                  ./freertos/freertos_kernel/timers.o
xQueueGenericSendFromISR                          ./freertos/freertos_kernel/queue.o
                                                  ./component/osa/fsl_os_abstraction_free_rtos.o
                                                  ./freertos/freertos_kernel/timers.o
xQueueGiveFromISR                                 ./freertos/freertos_kernel/queue.o
                                                  ./component/osa/fsl_os_abstraction_free_rtos.o
xQueueGiveMutexRecursive                          ./freertos/freertos_kernel/queue.o
                                                  ./component/osa/fsl_os_abstraction_free_rtos.o
xQueueIsQueueEmptyFromISR                         ./freertos/freertos_kernel/queue.o
xQueueIsQueueFullFromISR                          ./freertos/freertos_kernel/queue.o
xQueuePeek                                        ./freertos/freertos_kernel/queue.o
xQueuePeekFromISR                                 ./freertos/freertos_kernel/queue.o
xQueueReceive                                     ./freertos/freertos_kernel/queue.o
                                                  ./component/osa/fsl_os_abstraction_free_rtos.o
                                                  ./freertos/freertos_kernel/timers.o
xQueueReceiveFromISR                              ./freertos/freertos_kernel/queue.o
xQueueRegistry                                    ./freertos/freertos_kernel/queue.o
xQueueSemaphoreTake                               ./freertos/freertos_kernel/queue.o
                                                  ./component/osa/fsl_os_abstraction_free_rtos.o
xQueueTakeMutexRecursive                          ./freertos/freertos_kernel/queue.o
                                                  ./component/osa/fsl_os_abstraction_free_rtos.o
xSemaBin_CmdPollDevices                           ./source/CommandHandler.o
xStreamBufferBytesAvailable                       ./freertos/freertos_kernel/stream_buffer.o
xStreamBufferGenericCreate                        ./freertos/freertos_kernel/stream_buffer.o
xStreamBufferIsEmpty                              ./freertos/freertos_kernel/stream_buffer.o
xStreamBufferIsFull                               ./freertos/freertos_kernel/stream_buffer.o
xStreamBufferNextMessageLengthBytes               ./freertos/freertos_kernel/stream_buffer.o
xStreamBufferReceive                              ./freertos/freertos_kernel/stream_buffer.o
xStreamBufferReceiveCompletedFromISR              ./freertos/freertos_kernel/stream_buffer.o
xStreamBufferReceiveFromISR                       ./freertos/freertos_kernel/stream_buffer.o
xStreamBufferReset                                ./freertos/freertos_kernel/stream_buffer.o
xStreamBufferSend                                 ./freertos/freertos_kernel/stream_buffer.o
xStreamBufferSendCompletedFromISR                 ./freertos/freertos_kernel/stream_buffer.o
xStreamBufferSendFromISR                          ./freertos/freertos_kernel/stream_buffer.o
xStreamBufferSetTriggerLevel                      ./freertos/freertos_kernel/stream_buffer.o
xStreamBufferSpacesAvailable                      ./freertos/freertos_kernel/stream_buffer.o
xTaskCatchUpTicks                                 ./freertos/freertos_kernel/tasks.o
xTaskCheckForTimeOut                              ./freertos/freertos_kernel/tasks.o
                                                  ./freertos/freertos_kernel/stream_buffer.o
                                                  ./freertos/freertos_kernel/queue.o
xTaskCreate                                       ./freertos/freertos_kernel/tasks.o
                                                  ./freertos/freertos_kernel/timers.o
                                                  ./source/BRDUINO_Nano.o
                                                  ./source/Tracealyzer/trcKernelPort.o
                                                  ./source/usb/virtual_com.o
xTaskGenericNotify                                ./freertos/freertos_kernel/tasks.o
                                                  ./freertos/freertos_kernel/stream_buffer.o
xTaskGenericNotifyFromISR                         ./freertos/freertos_kernel/tasks.o
                                                  ./freertos/freertos_kernel/stream_buffer.o
                                                  ./source/CommandHandler.o
xTaskGetCurrentTaskHandle                         ./freertos/freertos_kernel/tasks.o
                                                  ./freertos/freertos_kernel/stream_buffer.o
                                                  ./freertos/freertos_kernel/queue.o
                                                  ./source/Tracealyzer/trcKernelPort.o
xTaskGetSchedulerState                            ./freertos/freertos_kernel/tasks.o
                                                  ./freertos/freertos_kernel/timers.o
                                                  ./freertos/freertos_kernel/queue.o
                                                  ./freertos/freertos_kernel/event_groups.o
                                                  ./source/Tracealyzer/trcKernelPort.o
xTaskGetTickCount                                 ./freertos/freertos_kernel/tasks.o
                                                  ./component/osa/fsl_os_abstraction_free_rtos.o
                                                  ./freertos/freertos_kernel/timers.o
xTaskGetTickCountFromISR                          ./freertos/freertos_kernel/tasks.o
                                                  ./component/osa/fsl_os_abstraction_free_rtos.o
xTaskIncrementTick                                ./freertos/freertos_kernel/tasks.o
                                                  ./freertos/freertos_kernel/portable/GCC/ARM_CM4F/port.o
xTaskNotifyStateClear                             ./freertos/freertos_kernel/tasks.o
                                                  ./freertos/freertos_kernel/stream_buffer.o
xTaskNotifyWait                                   ./freertos/freertos_kernel/tasks.o
                                                  ./freertos/freertos_kernel/stream_buffer.o
                                                  ./source/BRDUINO_Nano.o
xTaskPriorityDisinherit                           ./freertos/freertos_kernel/tasks.o
                                                  ./freertos/freertos_kernel/queue.o
xTaskPriorityInherit                              ./freertos/freertos_kernel/tasks.o
                                                  ./freertos/freertos_kernel/queue.o
xTaskRemoveFromEventList                          ./freertos/freertos_kernel/tasks.o
                                                  ./freertos/freertos_kernel/queue.o
xTaskResumeAll                                    ./freertos/freertos_kernel/tasks.o
                                                  ./freertos/freertos_kernel/timers.o
                                                  ./freertos/freertos_kernel/stream_buffer.o
                                                  ./freertos/freertos_kernel/queue.o
                                                  ./freertos/freertos_kernel/event_groups.o
                                                  ./freertos/freertos_kernel/portable/MemMang/heap_4.o
xTaskResumeFromISR                                ./freertos/freertos_kernel/tasks.o
xTimerCreate                                      ./freertos/freertos_kernel/timers.o
xTimerCreateTimerTask                             ./freertos/freertos_kernel/timers.o
                                                  ./freertos/freertos_kernel/tasks.o
xTimerGenericCommand                              ./freertos/freertos_kernel/timers.o
xTimerGetExpiryTime                               ./freertos/freertos_kernel/timers.o
xTimerGetPeriod                                   ./freertos/freertos_kernel/timers.o
xTimerGetTimerDaemonTaskHandle                    ./freertos/freertos_kernel/timers.o
xTimerIsTimerActive                               ./freertos/freertos_kernel/timers.o
xTimerPendFunctionCall                            ./freertos/freertos_kernel/timers.o
xTimerPendFunctionCallFromISR                     ./freertos/freertos_kernel/timers.o
                                                  ./freertos/freertos_kernel/event_groups.o
xTraceGetLastError                                ./source/Tracealyzer/trcStreamingRecorder.o
xTraceIsRecordingEnabled                          ./source/Tracealyzer/trcStreamingRecorder.o
                                                  ./source/Tracealyzer/trcKernelPort.o
xTraceRegisterString                              ./source/Tracealyzer/trcStreamingRecorder.o
                                                  ./board/board.o
                                                  ./source/BRDUINO_Nano.o
                                                  ./source/Tracealyzer/trcKernelPort.o
xTraceSetISRProperties                            ./source/Tracealyzer/trcStreamingRecorder.o
